(lp0
(lp1
I0
aI0
aI140
aa(lp2
I1365
aI0
aI13
aa(lp3
I233
aI520
aI8
aa(lp4
I1001
aI437
aI8
aa(lp5
I226
aI342
aI8
aa(lp6
I226
aI584
aI7
aa(lp7
I225
aI556
aI7
aa(lp8
I228
aI409
aI7
aa(lp9
I220
aI354
aI7
aa(lp10
I222
aI307
aI7
aa(lp11
I474
aI212
aI7
aa(lp12
I225
aI585
aI6
aa(lp13
I221
aI540
aI6
aa(lp14
I227
aI521
aI6
aa(lp15
I219
aI506
aI6
aa(lp16
I220
aI447
aI6
aa(lp17
I219
aI381
aI6
aa(lp18
I221
aI380
aI6
aa(lp19
I0
aI1
aI6
aa(lp20
I863
aI624
aI5
aa(lp21
I226
aI548
aI5
aa(lp22
I237
aI522
aI5
aa(lp23
I227
aI520
aI5
aa(lp24
I218
aI450
aI5
aa(lp25
I415
aI367
aI5
aa(lp26
I220
aI355
aI5
aa(lp27
I468
aI336
aI5
aa(lp28
I590
aI321
aI5
aa(lp29
I282
aI275
aI5
aa(lp30
I743
aI259
aI5
aa(lp31
I474
aI200
aI5
aa(lp32
I220
aI589
aI4
aa(lp33
I234
aI587
aI4
aa(lp34
I225
aI555
aI4
aa(lp35
I232
aI522
aI4
aa(lp36
I219
aI509
aI4
aa(lp37
I218
aI506
aI4
aa(lp38
I233
aI503
aI4
aa(lp39
I232
aI503
aI4
aa(lp40
I217
aI484
aI4
aa(lp41
I219
aI483
aI4
aa(lp42
I226
aI451
aI4
aa(lp43
I999
aI437
aI4
aa(lp44
I227
aI406
aI4
aa(lp45
I226
aI403
aI4
aa(lp46
I218
aI381
aI4
aa(lp47
I216
aI381
aI4
aa(lp48
I220
aI380
aI4
aa(lp49
I219
aI380
aI4
aa(lp50
I691
aI377
aI4
aa(lp51
I222
aI371
aI4
aa(lp52
I220
aI353
aI4
aa(lp53
I227
aI347
aI4
aa(lp54
I225
aI343
aI4
aa(lp55
I591
aI321
aI4
aa(lp56
I656
aI312
aI4
aa(lp57
I221
aI299
aI4
aa(lp58
I478
aI226
aI4
aa(lp59
I675
aI224
aI4
aa(lp60
I1138
aI207
aI4
aa(lp61
I1114
aI195
aI4
aa(lp62
I1114
aI194
aI4
aa(lp63
I160
aI111
aI4
aa(lp64
I160
aI110
aI4
aa(lp65
I0
aI59
aI4
aa(lp66
I192
aI39
aI4
aa(lp67
I191
aI39
aI4
aa(lp68
I234
aI591
aI3
aa(lp69
I221
aI588
aI3
aa(lp70
I233
aI586
aI3
aa(lp71
I226
aI585
aI3
aa(lp72
I221
aI585
aI3
aa(lp73
I220
aI579
aI3
aa(lp74
I220
aI576
aI3
aa(lp75
I872
aI565
aI3
aa(lp76
I223
aI558
aI3
aa(lp77
I225
aI557
aI3
aa(lp78
I225
aI548
aI3
aa(lp79
I227
aI547
aI3
aa(lp80
I232
aI543
aI3
aa(lp81
I230
aI535
aI3
aa(lp82
I227
aI528
aI3
aa(lp83
I217
aI504
aI3
aa(lp84
I231
aI502
aI3
aa(lp85
I231
aI501
aI3
aa(lp86
I217
aI487
aI3
aa(lp87
I217
aI486
aI3
aa(lp88
I227
aI472
aI3
aa(lp89
I219
aI466
aI3
aa(lp90
I217
aI450
aI3
aa(lp91
I217
aI446
aI3
aa(lp92
I227
aI445
aI3
aa(lp93
I227
aI442
aI3
aa(lp94
I220
aI442
aI3
aa(lp95
I994
aI441
aI3
aa(lp96
I606
aI416
aI3
aa(lp97
I228
aI410
aI3
aa(lp98
I219
aI405
aI3
aa(lp99
I226
aI404
aI3
aa(lp100
I224
aI402
aI3
aa(lp101
I225
aI401
aI3
aa(lp102
I219
aI401
aI3
aa(lp103
I710
aI397
aI3
aa(lp104
I189
aI397
aI3
aa(lp105
I217
aI381
aI3
aa(lp106
I223
aI380
aI3
aa(lp107
I222
aI380
aI3
aa(lp108
I481
aI379
aI3
aa(lp109
I225
aI368
aI3
aa(lp110
I222
aI363
aI3
aa(lp111
I227
aI348
aI3
aa(lp112
I227
aI345
aI3
aa(lp113
I226
aI341
aI3
aa(lp114
I225
aI341
aI3
aa(lp115
I467
aI337
aI3
aa(lp116
I225
aI324
aI3
aa(lp117
I484
aI319
aI3
aa(lp118
I457
aI311
aI3
aa(lp119
I222
aI306
aI3
aa(lp120
I221
aI303
aI3
aa(lp121
I62
aI284
aI3
aa(lp122
I79
aI277
aI3
aa(lp123
I338
aI271
aI3
aa(lp124
I593
aI269
aI3
aa(lp125
I850
aI266
aI3
aa(lp126
I966
aI258
aI3
aa(lp127
I966
aI257
aI3
aa(lp128
I792
aI242
aI3
aa(lp129
I362
aI231
aI3
aa(lp130
I443
aI229
aI3
aa(lp131
I675
aI223
aI3
aa(lp132
I1240
aI220
aI3
aa(lp133
I273
aI217
aI3
aa(lp134
I240
aI208
aI3
aa(lp135
I473
aI205
aI3
aa(lp136
I423
aI204
aI3
aa(lp137
I1150
aI203
aI3
aa(lp138
I440
aI201
aI3
aa(lp139
I215
aI196
aI3
aa(lp140
I215
aI195
aI3
aa(lp141
I1144
aI188
aI3
aa(lp142
I1144
aI187
aI3
aa(lp143
I1241
aI184
aI3
aa(lp144
I1157
aI181
aI3
aa(lp145
I1145
aI162
aI3
aa(lp146
I23
aI159
aI3
aa(lp147
I146
aI23
aI3
aa(lp148
I1363
aI1
aI3
aa(lp149
I864
aI623
aI2
aa(lp150
I863
aI623
aI2
aa(lp151
I233
aI591
aI2
aa(lp152
I224
aI591
aI2
aa(lp153
I234
aI590
aI2
aa(lp154
I222
aI590
aI2
aa(lp155
I234
aI586
aI2
aa(lp156
I224
aI585
aI2
aa(lp157
I222
aI585
aI2
aa(lp158
I221
aI584
aI2
aa(lp159
I220
aI582
aI2
aa(lp160
I220
aI581
aI2
aa(lp161
I220
aI580
aI2
aa(lp162
I220
aI578
aI2
aa(lp163
I220
aI577
aI2
aa(lp164
I221
aI567
aI2
aa(lp165
I700
aI560
aI2
aa(lp166
I224
aI556
aI2
aa(lp167
I224
aI555
aI2
aa(lp168
I225
aI554
aI2
aa(lp169
I225
aI553
aI2
aa(lp170
I225
aI549
aI2
aa(lp171
I227
aI548
aI2
aa(lp172
I224
aI548
aI2
aa(lp173
I228
aI546
aI2
aa(lp174
I230
aI545
aI2
aa(lp175
I231
aI544
aI2
aa(lp176
I221
aI537
aI2
aa(lp177
I231
aI536
aI2
aa(lp178
I221
aI535
aI2
aa(lp179
I221
aI534
aI2
aa(lp180
I230
aI533
aI2
aa(lp181
I221
aI533
aI2
aa(lp182
I228
aI530
aI2
aa(lp183
I228
aI529
aI2
aa(lp184
I233
aI522
aI2
aa(lp185
I227
aI522
aI2
aa(lp186
I219
aI510
aI2
aa(lp187
I218
aI507
aI2
aa(lp188
I219
aI505
aI2
aa(lp189
I218
aI505
aI2
aa(lp190
I219
aI504
aI2
aa(lp191
I217
aI503
aI2
aa(lp192
I231
aI500
aI2
aa(lp193
I217
aI500
aI2
aa(lp194
I230
aI499
aI2
aa(lp195
I217
aI499
aI2
aa(lp196
I217
aI498
aI2
aa(lp197
I230
aI497
aI2
aa(lp198
I217
aI497
aI2
aa(lp199
I219
aI482
aI2
aa(lp200
I228
aI480
aI2
aa(lp201
I216
aI479
aI2
aa(lp202
I216
aI478
aI2
aa(lp203
I225
aI474
aI2
aa(lp204
I216
aI474
aI2
aa(lp205
I225
aI473
aI2
aa(lp206
I216
aI473
aI2
aa(lp207
I217
aI470
aI2
aa(lp208
I226
aI467
aI2
aa(lp209
I225
aI461
aI2
aa(lp210
I224
aI457
aI2
aa(lp211
I221
aI448
aI2
aa(lp212
I217
aI448
aI2
aa(lp213
I221
aI447
aI2
aa(lp214
I217
aI445
aI2
aa(lp215
I219
aI442
aI2
aa(lp216
I220
aI441
aI2
aa(lp217
I998
aI440
aI2
aa(lp218
I227
aI440
aI2
aa(lp219
I220
aI440
aI2
aa(lp220
I1001
aI438
aI2
aa(lp221
I227
aI436
aI2
aa(lp222
I227
aI433
aI2
aa(lp223
I227
aI432
aI2
aa(lp224
I227
aI430
aI2
aa(lp225
I665
aI420
aI2
aa(lp226
I421
aI420
aI2
aa(lp227
I421
aI419
aI2
aa(lp228
I634
aI412
aI2
aa(lp229
I631
aI412
aI2
aa(lp230
I225
aI402
aI2
aa(lp231
I225
aI400
aI2
aa(lp232
I229
aI395
aI2
aa(lp233
I229
aI394
aI2
aa(lp234
I219
aI393
aI2
aa(lp235
I229
aI392
aI2
aa(lp236
I598
aI385
aI2
aa(lp237
I692
aI377
aI2
aa(lp238
I216
aI375
aI2
aa(lp239
I216
aI374
aI2
aa(lp240
I216
aI373
aI2
aa(lp241
I216
aI372
aI2
aa(lp242
I222
aI370
aI2
aa(lp243
I222
aI369
aI2
aa(lp244
I614
aI368
aI2
aa(lp245
I224
aI368
aI2
aa(lp246
I223
aI367
aI2
aa(lp247
I222
aI364
aI2
aa(lp248
I222
aI361
aI2
aa(lp249
I161
aI360
aI2
aa(lp250
I220
aI356
aI2
aa(lp251
I219
aI354
aI2
aa(lp252
I219
aI353
aI2
aa(lp253
I225
aI351
aI2
aa(lp254
I395
aI345
aI2
aa(lp255
I226
aI344
aI2
aa(lp256
I225
aI342
aI2
aa(lp257
I525
aI337
aI2
aa(lp258
I534
aI326
aI2
aa(lp259
I608
aI325
aI2
aa(lp260
I534
aI325
aI2
aa(lp261
I534
aI324
aI2
aa(lp262
I226
aI324
aI2
aa(lp263
I412
aI323
aI2
aa(lp264
I422
aI321
aI2
aa(lp265
I594
aI320
aI2
aa(lp266
I592
aI320
aI2
aa(lp267
I456
aI320
aI2
aa(lp268
I455
aI320
aI2
aa(lp269
I617
aI314
aI2
aa(lp270
I616
aI314
aI2
aa(lp271
I613
aI314
aI2
aa(lp272
I224
aI308
aI2
aa(lp273
I223
aI307
aI2
aa(lp274
I230
aI304
aI2
aa(lp275
I222
aI304
aI2
aa(lp276
I221
aI298
aI2
aa(lp277
I221
aI297
aI2
aa(lp278
I618
aI288
aI2
aa(lp279
I62
aI285
aI2
aa(lp280
I679
aI283
aI2
aa(lp281
I80
aI277
aI2
aa(lp282
I337
aI272
aI2
aa(lp283
I756
aI271
aI2
aa(lp284
I756
aI266
aI2
aa(lp285
I742
aI259
aI2
aa(lp286
I963
aI243
aI2
aa(lp287
I793
aI242
aI2
aa(lp288
I493
aI238
aI2
aa(lp289
I366
aI235
aI2
aa(lp290
I444
aI229
aI2
aa(lp291
I1244
aI220
aI2
aa(lp292
I1256
aI217
aI2
aa(lp293
I274
aI217
aI2
aa(lp294
I1258
aI216
aI2
aa(lp295
I487
aI212
aI2
aa(lp296
I488
aI211
aI2
aa(lp297
I240
aI209
aI2
aa(lp298
I1140
aI207
aI2
aa(lp299
I474
aI207
aI2
aa(lp300
I239
aI207
aI2
aa(lp301
I474
aI205
aI2
aa(lp302
I441
aI201
aI2
aa(lp303
I475
aI197
aI2
aa(lp304
I1237
aI195
aI2
aa(lp305
I1115
aI194
aI2
aa(lp306
I1116
aI193
aI2
aa(lp307
I483
aI192
aI2
aa(lp308
I482
aI192
aI2
aa(lp309
I1152
aI186
aI2
aa(lp310
I1151
aI186
aI2
aa(lp311
I1240
aI184
aI2
aa(lp312
I1140
aI167
aI2
aa(lp313
I1141
aI166
aI2
aa(lp314
I1144
aI164
aI2
aa(lp315
I1145
aI163
aI2
aa(lp316
I23
aI155
aI2
aa(lp317
I443
aI153
aI2
aa(lp318
I442
aI153
aI2
aa(lp319
I14
aI142
aI2
aa(lp320
I261
aI139
aI2
aa(lp321
I14
aI138
aI2
aa(lp322
I157
aI132
aI2
aa(lp323
I1147
aI75
aI2
aa(lp324
I1147
aI74
aI2
aa(lp325
I146
aI22
aI2
aa(lp326
I105
aI12
aI2
aa(lp327
I0
aI2
aI2
aa(lp328
I865
aI622
aI1
aa(lp329
I867
aI620
aI1
aa(lp330
I859
aI620
aI1
aa(lp331
I868
aI617
aI1
aa(lp332
I851
aI615
aI1
aa(lp333
I869
aI613
aI1
aa(lp334
I871
aI607
aI1
aa(lp335
I822
aI601
aI1
aa(lp336
I873
aI596
aI1
aa(lp337
I230
aI591
aI1
aa(lp338
I227
aI591
aI1
aa(lp339
I226
aI591
aI1
aa(lp340
I221
aI590
aI1
aa(lp341
I874
aI589
aI1
aa(lp342
I234
aI589
aI1
aa(lp343
I221
aI589
aI1
aa(lp344
I234
aI588
aI1
aa(lp345
I220
aI588
aI1
aa(lp346
I222
aI587
aI1
aa(lp347
I231
aI586
aI1
aa(lp348
I222
aI586
aI1
aa(lp349
I874
aI585
aI1
aa(lp350
I229
aI585
aI1
aa(lp351
I228
aI585
aI1
aa(lp352
I223
aI585
aI1
aa(lp353
I225
aI584
aI1
aa(lp354
I874
aI583
aI1
aa(lp355
I226
aI583
aI1
aa(lp356
I225
aI583
aI1
aa(lp357
I220
aI583
aI1
aa(lp358
I225
aI582
aI1
aa(lp359
I874
aI581
aI1
aa(lp360
I874
aI579
aI1
aa(lp361
I227
aI579
aI1
aa(lp362
I874
aI577
aI1
aa(lp363
I793
aI577
aI1
aa(lp364
I874
aI575
aI1
aa(lp365
I874
aI574
aI1
aa(lp366
I220
aI574
aI1
aa(lp367
I220
aI573
aI1
aa(lp368
I874
aI572
aI1
aa(lp369
I231
aI571
aI1
aa(lp370
I873
aI570
aI1
aa(lp371
I221
aI570
aI1
aa(lp372
I221
aI569
aI1
aa(lp373
I873
aI568
aI1
aa(lp374
I221
aI566
aI1
aa(lp375
I221
aI565
aI1
aa(lp376
I872
aI563
aI1
aa(lp377
I222
aI563
aI1
aa(lp378
I700
aI561
aI1
aa(lp379
I699
aI561
aI1
aa(lp380
I222
aI561
aI1
aa(lp381
I699
aI560
aI1
aa(lp382
I223
aI560
aI1
aa(lp383
I700
aI559
aI1
aa(lp384
I698
aI559
aI1
aa(lp385
I223
aI559
aI1
aa(lp386
I869
aI558
aI1
aa(lp387
I703
aI557
aI1
aa(lp388
I702
aI557
aI1
aa(lp389
I708
aI556
aI1
aa(lp390
I707
aI556
aI1
aa(lp391
I705
aI556
aI1
aa(lp392
I704
aI556
aI1
aa(lp393
I706
aI555
aI1
aa(lp394
I696
aI555
aI1
aa(lp395
I693
aI552
aI1
aa(lp396
I224
aI552
aI1
aa(lp397
I224
aI551
aI1
aa(lp398
I863
aI550
aI1
aa(lp399
I224
aI550
aI1
aa(lp400
I238
aI548
aI1
aa(lp401
I733
aI546
aI1
aa(lp402
I229
aI546
aI1
aa(lp403
I700
aI545
aI1
aa(lp404
I229
aI545
aI1
aa(lp405
I690
aI544
aI1
aa(lp406
I230
aI544
aI1
aa(lp407
I849
aI541
aI1
aa(lp408
I221
aI539
aI1
aa(lp409
I221
aI538
aI1
aa(lp410
I221
aI536
aI1
aa(lp411
I683
aI534
aI1
aa(lp412
I230
aI534
aI1
aa(lp413
I248
aI533
aI1
aa(lp414
I229
aI532
aI1
aa(lp415
I229
aI531
aI1
aa(lp416
I221
aI531
aI1
aa(lp417
I220
aI530
aI1
aa(lp418
I830
aI529
aI1
aa(lp419
I228
aI528
aI1
aa(lp420
I224
aI528
aI1
aa(lp421
I227
aI527
aI1
aa(lp422
I677
aI526
aI1
aa(lp423
I227
aI526
aI1
aa(lp424
I220
aI525
aI1
aa(lp425
I655
aI523
aI1
aa(lp426
I644
aI522
aI1
aa(lp427
I236
aI522
aI1
aa(lp428
I231
aI522
aI1
aa(lp429
I697
aI521
aI1
aa(lp430
I673
aI521
aI1
aa(lp431
I237
aI521
aI1
aa(lp432
I234
aI521
aI1
aa(lp433
I231
aI521
aI1
aa(lp434
I236
aI520
aI1
aa(lp435
I231
aI520
aI1
aa(lp436
I262
aI519
aI1
aa(lp437
I236
aI519
aI1
aa(lp438
I228
aI519
aI1
aa(lp439
I227
aI519
aI1
aa(lp440
I236
aI518
aI1
aa(lp441
I664
aI516
aI1
aa(lp442
I236
aI516
aI1
aa(lp443
I702
aI515
aI1
aa(lp444
I624
aI515
aI1
aa(lp445
I220
aI515
aI1
aa(lp446
I235
aI514
aI1
aa(lp447
I815
aI512
aI1
aa(lp448
I241
aI512
aI1
aa(lp449
I235
aI511
aI1
aa(lp450
I220
aI511
aI1
aa(lp451
I676
aI508
aI1
aa(lp452
I654
aI508
aI1
aa(lp453
I540
aI508
aI1
aa(lp454
I532
aI508
aI1
aa(lp455
I520
aI508
aI1
aa(lp456
I234
aI508
aI1
aa(lp457
I219
aI508
aI1
aa(lp458
I233
aI507
aI1
aa(lp459
I504
aI506
aI1
aa(lp460
I545
aI505
aI1
aa(lp461
I495
aI505
aI1
aa(lp462
I233
aI505
aI1
aa(lp463
I217
aI505
aI1
aa(lp464
I218
aI504
aI1
aa(lp465
I486
aI503
aI1
aa(lp466
I249
aI503
aI1
aa(lp467
I219
aI503
aI1
aa(lp468
I219
aI502
aI1
aa(lp469
I218
aI502
aI1
aa(lp470
I217
aI502
aI1
aa(lp471
I218
aI501
aI1
aa(lp472
I730
aI500
aI1
aa(lp473
I476
aI500
aI1
aa(lp474
I218
aI499
aI1
aa(lp475
I230
aI498
aI1
aa(lp476
I218
aI498
aI1
aa(lp477
I643
aI497
aI1
aa(lp478
I605
aI497
aI1
aa(lp479
I230
aI496
aI1
aa(lp480
I218
aI496
aI1
aa(lp481
I220
aI495
aI1
aa(lp482
I218
aI495
aI1
aa(lp483
I217
aI495
aI1
aa(lp484
I460
aI494
aI1
aa(lp485
I229
aI494
aI1
aa(lp486
I559
aI493
aI1
aa(lp487
I217
aI493
aI1
aa(lp488
I229
aI492
aI1
aa(lp489
I218
aI492
aI1
aa(lp490
I217
aI492
aI1
aa(lp491
I217
aI491
aI1
aa(lp492
I229
aI490
aI1
aa(lp493
I218
aI490
aI1
aa(lp494
I217
aI489
aI1
aa(lp495
I229
aI488
aI1
aa(lp496
I217
aI488
aI1
aa(lp497
I446
aI486
aI1
aa(lp498
I255
aI486
aI1
aa(lp499
I228
aI486
aI1
aa(lp500
I217
aI485
aI1
aa(lp501
I546
aI484
aI1
aa(lp502
I545
aI484
aI1
aa(lp503
I228
aI484
aI1
aa(lp504
I802
aI483
aI1
aa(lp505
I544
aI483
aI1
aa(lp506
I276
aI483
aI1
aa(lp507
I228
aI483
aI1
aa(lp508
I651
aI482
aI1
aa(lp509
I228
aI482
aI1
aa(lp510
I218
aI482
aI1
aa(lp511
I228
aI481
aI1
aa(lp512
I223
aI481
aI1
aa(lp513
I219
aI481
aI1
aa(lp514
I633
aI480
aI1
aa(lp515
I370
aI480
aI1
aa(lp516
I351
aI480
aI1
aa(lp517
I219
aI480
aI1
aa(lp518
I218
aI480
aI1
aa(lp519
I269
aI479
aI1
aa(lp520
I251
aI479
aI1
aa(lp521
I230
aI479
aI1
aa(lp522
I228
aI479
aI1
aa(lp523
I219
aI479
aI1
aa(lp524
I218
aI479
aI1
aa(lp525
I217
aI479
aI1
aa(lp526
I548
aI478
aI1
aa(lp527
I386
aI478
aI1
aa(lp528
I319
aI478
aI1
aa(lp529
I228
aI478
aI1
aa(lp530
I219
aI478
aI1
aa(lp531
I544
aI477
aI1
aa(lp532
I437
aI477
aI1
aa(lp533
I228
aI477
aI1
aa(lp534
I225
aI477
aI1
aa(lp535
I216
aI477
aI1
aa(lp536
I197
aI477
aI1
aa(lp537
I549
aI476
aI1
aa(lp538
I225
aI476
aI1
aa(lp539
I216
aI476
aI1
aa(lp540
I586
aI475
aI1
aa(lp541
I228
aI475
aI1
aa(lp542
I219
aI475
aI1
aa(lp543
I216
aI475
aI1
aa(lp544
I551
aI474
aI1
aa(lp545
I407
aI474
aI1
aa(lp546
I295
aI474
aI1
aa(lp547
I228
aI474
aI1
aa(lp548
I305
aI473
aI1
aa(lp549
I633
aI472
aI1
aa(lp550
I226
aI472
aI1
aa(lp551
I225
aI472
aI1
aa(lp552
I219
aI472
aI1
aa(lp553
I217
aI472
aI1
aa(lp554
I216
aI472
aI1
aa(lp555
I182
aI472
aI1
aa(lp556
I554
aI471
aI1
aa(lp557
I227
aI471
aI1
aa(lp558
I226
aI471
aI1
aa(lp559
I217
aI471
aI1
aa(lp560
I219
aI470
aI1
aa(lp561
I751
aI469
aI1
aa(lp562
I542
aI469
aI1
aa(lp563
I430
aI469
aI1
aa(lp564
I263
aI469
aI1
aa(lp565
I261
aI469
aI1
aa(lp566
I218
aI469
aI1
aa(lp567
I217
aI469
aI1
aa(lp568
I524
aI468
aI1
aa(lp569
I512
aI468
aI1
aa(lp570
I504
aI468
aI1
aa(lp571
I497
aI468
aI1
aa(lp572
I428
aI468
aI1
aa(lp573
I219
aI468
aI1
aa(lp574
I218
aI468
aI1
aa(lp575
I489
aI467
aI1
aa(lp576
I533
aI466
aI1
aa(lp577
I226
aI466
aI1
aa(lp578
I790
aI465
aI1
aa(lp579
I220
aI465
aI1
aa(lp580
I219
aI465
aI1
aa(lp581
I558
aI464
aI1
aa(lp582
I477
aI464
aI1
aa(lp583
I225
aI464
aI1
aa(lp584
I220
aI464
aI1
aa(lp585
I219
aI464
aI1
aa(lp586
I231
aI463
aI1
aa(lp587
I222
aI463
aI1
aa(lp588
I537
aI462
aI1
aa(lp589
I440
aI462
aI1
aa(lp590
I219
aI462
aI1
aa(lp591
I603
aI461
aI1
aa(lp592
I458
aI461
aI1
aa(lp593
I426
aI461
aI1
aa(lp594
I222
aI461
aI1
aa(lp595
I169
aI461
aI1
aa(lp596
I623
aI460
aI1
aa(lp597
I539
aI460
aI1
aa(lp598
I325
aI460
aI1
aa(lp599
I223
aI460
aI1
aa(lp600
I224
aI459
aI1
aa(lp601
I219
aI459
aI1
aa(lp602
I565
aI458
aI1
aa(lp603
I368
aI458
aI1
aa(lp604
I356
aI458
aI1
aa(lp605
I213
aI458
aI1
aa(lp606
I448
aI457
aI1
aa(lp607
I225
aI457
aI1
aa(lp608
I270
aI456
aI1
aa(lp609
I224
aI456
aI1
aa(lp610
I545
aI455
aI1
aa(lp611
I446
aI455
aI1
aa(lp612
I377
aI455
aI1
aa(lp613
I289
aI455
aI1
aa(lp614
I226
aI455
aI1
aa(lp615
I330
aI454
aI1
aa(lp616
I223
aI454
aI1
aa(lp617
I570
aI453
aI1
aa(lp618
I223
aI453
aI1
aa(lp619
I219
aI453
aI1
aa(lp620
I706
aI452
aI1
aa(lp621
I683
aI452
aI1
aa(lp622
I223
aI452
aI1
aa(lp623
I572
aI451
aI1
aa(lp624
I222
aI451
aI1
aa(lp625
I217
aI451
aI1
aa(lp626
I216
aI451
aI1
aa(lp627
I611
aI450
aI1
aa(lp628
I227
aI450
aI1
aa(lp629
I216
aI450
aI1
aa(lp630
I193
aI450
aI1
aa(lp631
I574
aI449
aI1
aa(lp632
I535
aI449
aI1
aa(lp633
I426
aI449
aI1
aa(lp634
I227
aI449
aI1
aa(lp635
I222
aI449
aI1
aa(lp636
I220
aI449
aI1
aa(lp637
I217
aI449
aI1
aa(lp638
I743
aI448
aI1
aa(lp639
I591
aI448
aI1
aa(lp640
I386
aI448
aI1
aa(lp641
I227
aI448
aI1
aa(lp642
I220
aI448
aI1
aa(lp643
I219
aI448
aI1
aa(lp644
I781
aI447
aI1
aa(lp645
I607
aI447
aI1
aa(lp646
I575
aI447
aI1
aa(lp647
I227
aI447
aI1
aa(lp648
I217
aI447
aI1
aa(lp649
I661
aI446
aI1
aa(lp650
I227
aI446
aI1
aa(lp651
I220
aI446
aI1
aa(lp652
I577
aI445
aI1
aa(lp653
I578
aI444
aI1
aa(lp654
I454
aI444
aI1
aa(lp655
I438
aI444
aI1
aa(lp656
I227
aI444
aI1
aa(lp657
I219
aI444
aI1
aa(lp658
I217
aI444
aI1
aa(lp659
I157
aI444
aI1
aa(lp660
I219
aI443
aI1
aa(lp661
I217
aI443
aI1
aa(lp662
I579
aI442
aI1
aa(lp663
I280
aI441
aI1
aa(lp664
I999
aI440
aI1
aa(lp665
I996
aI440
aI1
aa(lp666
I995
aI440
aI1
aa(lp667
I994
aI440
aI1
aa(lp668
I580
aI440
aI1
aa(lp669
I219
aI440
aI1
aa(lp670
I168
aI440
aI1
aa(lp671
I1000
aI439
aI1
aa(lp672
I994
aI439
aI1
aa(lp673
I588
aI439
aI1
aa(lp674
I529
aI439
aI1
aa(lp675
I395
aI439
aI1
aa(lp676
I349
aI439
aI1
aa(lp677
I219
aI439
aI1
aa(lp678
I608
aI438
aI1
aa(lp679
I581
aI438
aI1
aa(lp680
I228
aI438
aI1
aa(lp681
I227
aI438
aI1
aa(lp682
I1000
aI437
aI1
aa(lp683
I763
aI437
aI1
aa(lp684
I557
aI437
aI1
aa(lp685
I532
aI437
aI1
aa(lp686
I227
aI437
aI1
aa(lp687
I993
aI436
aI1
aa(lp688
I658
aI436
aI1
aa(lp689
I598
aI436
aI1
aa(lp690
I583
aI436
aI1
aa(lp691
I582
aI436
aI1
aa(lp692
I219
aI436
aI1
aa(lp693
I616
aI435
aI1
aa(lp694
I297
aI435
aI1
aa(lp695
I227
aI435
aI1
aa(lp696
I217
aI435
aI1
aa(lp697
I583
aI434
aI1
aa(lp698
I403
aI434
aI1
aa(lp699
I305
aI434
aI1
aa(lp700
I227
aI434
aI1
aa(lp701
I219
aI434
aI1
aa(lp702
I585
aI432
aI1
aa(lp703
I432
aI432
aI1
aa(lp704
I426
aI432
aI1
aa(lp705
I219
aI432
aI1
aa(lp706
I143
aI432
aI1
aa(lp707
I707
aI431
aI1
aa(lp708
I651
aI431
aI1
aa(lp709
I599
aI430
aI1
aa(lp710
I587
aI430
aI1
aa(lp711
I578
aI430
aI1
aa(lp712
I219
aI430
aI1
aa(lp713
I532
aI429
aI1
aa(lp714
I227
aI429
aI1
aa(lp715
I219
aI429
aI1
aa(lp716
I588
aI428
aI1
aa(lp717
I408
aI428
aI1
aa(lp718
I372
aI428
aI1
aa(lp719
I227
aI428
aI1
aa(lp720
I219
aI428
aI1
aa(lp721
I427
aI427
aI1
aa(lp722
I219
aI427
aI1
aa(lp723
I621
aI426
aI1
aa(lp724
I561
aI426
aI1
aa(lp725
I523
aI426
aI1
aa(lp726
I227
aI426
aI1
aa(lp727
I219
aI426
aI1
aa(lp728
I984
aI425
aI1
aa(lp729
I769
aI425
aI1
aa(lp730
I741
aI425
aI1
aa(lp731
I590
aI425
aI1
aa(lp732
I227
aI425
aI1
aa(lp733
I219
aI425
aI1
aa(lp734
I139
aI425
aI1
aa(lp735
I593
aI424
aI1
aa(lp736
I423
aI424
aI1
aa(lp737
I410
aI424
aI1
aa(lp738
I675
aI423
aI1
aa(lp739
I626
aI423
aI1
aa(lp740
I596
aI423
aI1
aa(lp741
I584
aI423
aI1
aa(lp742
I482
aI423
aI1
aa(lp743
I421
aI423
aI1
aa(lp744
I241
aI423
aI1
aa(lp745
I227
aI423
aI1
aa(lp746
I219
aI423
aI1
aa(lp747
I707
aI422
aI1
aa(lp748
I636
aI422
aI1
aa(lp749
I599
aI422
aI1
aa(lp750
I460
aI422
aI1
aa(lp751
I421
aI422
aI1
aa(lp752
I220
aI422
aI1
aa(lp753
I764
aI421
aI1
aa(lp754
I689
aI421
aI1
aa(lp755
I227
aI421
aI1
aa(lp756
I218
aI421
aI1
aa(lp757
I649
aI420
aI1
aa(lp758
I601
aI420
aI1
aa(lp759
I227
aI420
aI1
aa(lp760
I155
aI420
aI1
aa(lp761
I780
aI419
aI1
aa(lp762
I702
aI419
aI1
aa(lp763
I665
aI419
aI1
aa(lp764
I608
aI419
aI1
aa(lp765
I603
aI419
aI1
aa(lp766
I593
aI419
aI1
aa(lp767
I580
aI419
aI1
aa(lp768
I448
aI419
aI1
aa(lp769
I410
aI419
aI1
aa(lp770
I366
aI419
aI1
aa(lp771
I702
aI418
aI1
aa(lp772
I664
aI418
aI1
aa(lp773
I606
aI418
aI1
aa(lp774
I605
aI418
aI1
aa(lp775
I604
aI418
aI1
aa(lp776
I570
aI418
aI1
aa(lp777
I427
aI418
aI1
aa(lp778
I421
aI418
aI1
aa(lp779
I410
aI418
aI1
aa(lp780
I227
aI418
aI1
aa(lp781
I218
aI418
aI1
aa(lp782
I702
aI417
aI1
aa(lp783
I606
aI417
aI1
aa(lp784
I491
aI417
aI1
aa(lp785
I424
aI417
aI1
aa(lp786
I396
aI417
aI1
aa(lp787
I288
aI417
aI1
aa(lp788
I227
aI417
aI1
aa(lp789
I702
aI416
aI1
aa(lp790
I139
aI416
aI1
aa(lp791
I556
aI415
aI1
aa(lp792
I430
aI415
aI1
aa(lp793
I227
aI415
aI1
aa(lp794
I702
aI414
aI1
aa(lp795
I655
aI414
aI1
aa(lp796
I606
aI414
aI1
aa(lp797
I564
aI414
aI1
aa(lp798
I437
aI414
aI1
aa(lp799
I410
aI414
aI1
aa(lp800
I227
aI414
aI1
aa(lp801
I218
aI414
aI1
aa(lp802
I791
aI413
aI1
aa(lp803
I605
aI413
aI1
aa(lp804
I528
aI413
aI1
aa(lp805
I374
aI413
aI1
aa(lp806
I646
aI412
aI1
aa(lp807
I641
aI412
aI1
aa(lp808
I636
aI412
aI1
aa(lp809
I632
aI412
aI1
aa(lp810
I629
aI412
aI1
aa(lp811
I430
aI412
aI1
aa(lp812
I222
aI412
aI1
aa(lp813
I448
aI411
aI1
aa(lp814
I227
aI411
aI1
aa(lp815
I218
aI411
aI1
aa(lp816
I701
aI410
aI1
aa(lp817
I673
aI410
aI1
aa(lp818
I649
aI410
aI1
aa(lp819
I627
aI410
aI1
aa(lp820
I615
aI410
aI1
aa(lp821
I590
aI410
aI1
aa(lp822
I470
aI410
aI1
aa(lp823
I449
aI410
aI1
aa(lp824
I242
aI410
aI1
aa(lp825
I960
aI409
aI1
aa(lp826
I660
aI409
aI1
aa(lp827
I609
aI409
aI1
aa(lp828
I605
aI409
aI1
aa(lp829
I537
aI409
aI1
aa(lp830
I219
aI409
aI1
aa(lp831
I228
aI408
aI1
aa(lp832
I727
aI407
aI1
aa(lp833
I612
aI407
aI1
aa(lp834
I610
aI407
aI1
aa(lp835
I516
aI407
aI1
aa(lp836
I470
aI407
aI1
aa(lp837
I433
aI407
aI1
aa(lp838
I228
aI407
aI1
aa(lp839
I227
aI407
aI1
aa(lp840
I219
aI407
aI1
aa(lp841
I621
aI406
aI1
aa(lp842
I589
aI406
aI1
aa(lp843
I410
aI406
aI1
aa(lp844
I354
aI406
aI1
aa(lp845
I668
aI405
aI1
aa(lp846
I610
aI405
aI1
aa(lp847
I570
aI405
aI1
aa(lp848
I257
aI405
aI1
aa(lp849
I227
aI405
aI1
aa(lp850
I148
aI405
aI1
aa(lp851
I142
aI405
aI1
aa(lp852
I699
aI404
aI1
aa(lp853
I610
aI404
aI1
aa(lp854
I595
aI404
aI1
aa(lp855
I594
aI404
aI1
aa(lp856
I563
aI404
aI1
aa(lp857
I558
aI404
aI1
aa(lp858
I436
aI404
aI1
aa(lp859
I227
aI404
aI1
aa(lp860
I219
aI404
aI1
aa(lp861
I551
aI403
aI1
aa(lp862
I225
aI403
aI1
aa(lp863
I219
aI403
aI1
aa(lp864
I609
aI402
aI1
aa(lp865
I543
aI402
aI1
aa(lp866
I513
aI402
aI1
aa(lp867
I543
aI401
aI1
aa(lp868
I529
aI401
aI1
aa(lp869
I519
aI401
aI1
aa(lp870
I465
aI401
aI1
aa(lp871
I441
aI401
aI1
aa(lp872
I303
aI401
aI1
aa(lp873
I566
aI400
aI1
aa(lp874
I564
aI400
aI1
aa(lp875
I226
aI400
aI1
aa(lp876
I219
aI400
aI1
aa(lp877
I607
aI399
aI1
aa(lp878
I577
aI399
aI1
aa(lp879
I518
aI399
aI1
aa(lp880
I227
aI399
aI1
aa(lp881
I225
aI399
aI1
aa(lp882
I219
aI399
aI1
aa(lp883
I792
aI398
aI1
aa(lp884
I486
aI398
aI1
aa(lp885
I446
aI398
aI1
aa(lp886
I422
aI398
aI1
aa(lp887
I225
aI398
aI1
aa(lp888
I711
aI397
aI1
aa(lp889
I709
aI397
aI1
aa(lp890
I707
aI397
aI1
aa(lp891
I702
aI397
aI1
aa(lp892
I599
aI397
aI1
aa(lp893
I410
aI397
aI1
aa(lp894
I225
aI397
aI1
aa(lp895
I219
aI397
aI1
aa(lp896
I204
aI397
aI1
aa(lp897
I195
aI397
aI1
aa(lp898
I192
aI397
aI1
aa(lp899
I190
aI397
aI1
aa(lp900
I711
aI396
aI1
aa(lp901
I675
aI396
aI1
aa(lp902
I512
aI396
aI1
aa(lp903
I454
aI396
aI1
aa(lp904
I327
aI396
aI1
aa(lp905
I305
aI396
aI1
aa(lp906
I219
aI396
aI1
aa(lp907
I189
aI396
aI1
aa(lp908
I146
aI396
aI1
aa(lp909
I693
aI395
aI1
aa(lp910
I506
aI395
aI1
aa(lp911
I498
aI395
aI1
aa(lp912
I486
aI395
aI1
aa(lp913
I477
aI395
aI1
aa(lp914
I472
aI395
aI1
aa(lp915
I467
aI395
aI1
aa(lp916
I462
aI395
aI1
aa(lp917
I458
aI395
aI1
aa(lp918
I228
aI395
aI1
aa(lp919
I225
aI395
aI1
aa(lp920
I216
aI395
aI1
aa(lp921
I938
aI394
aI1
aa(lp922
I824
aI394
aI1
aa(lp923
I707
aI394
aI1
aa(lp924
I695
aI394
aI1
aa(lp925
I465
aI394
aI1
aa(lp926
I408
aI394
aI1
aa(lp927
I387
aI394
aI1
aa(lp928
I235
aI394
aI1
aa(lp929
I219
aI394
aI1
aa(lp930
I704
aI393
aI1
aa(lp931
I605
aI393
aI1
aa(lp932
I229
aI393
aI1
aa(lp933
I742
aI392
aI1
aa(lp934
I679
aI392
aI1
aa(lp935
I242
aI392
aI1
aa(lp936
I225
aI392
aI1
aa(lp937
I219
aI392
aI1
aa(lp938
I407
aI391
aI1
aa(lp939
I228
aI391
aI1
aa(lp940
I556
aI390
aI1
aa(lp941
I502
aI390
aI1
aa(lp942
I252
aI390
aI1
aa(lp943
I228
aI390
aI1
aa(lp944
I227
aI390
aI1
aa(lp945
I219
aI390
aI1
aa(lp946
I146
aI390
aI1
aa(lp947
I585
aI389
aI1
aa(lp948
I502
aI389
aI1
aa(lp949
I405
aI389
aI1
aa(lp950
I268
aI389
aI1
aa(lp951
I226
aI389
aI1
aa(lp952
I224
aI389
aI1
aa(lp953
I219
aI389
aI1
aa(lp954
I700
aI388
aI1
aa(lp955
I605
aI388
aI1
aa(lp956
I411
aI388
aI1
aa(lp957
I313
aI388
aI1
aa(lp958
I226
aI387
aI1
aa(lp959
I224
aI387
aI1
aa(lp960
I219
aI387
aI1
aa(lp961
I205
aI387
aI1
aa(lp962
I679
aI386
aI1
aa(lp963
I402
aI386
aI1
aa(lp964
I287
aI386
aI1
aa(lp965
I225
aI386
aI1
aa(lp966
I224
aI386
aI1
aa(lp967
I146
aI386
aI1
aa(lp968
I687
aI385
aI1
aa(lp969
I485
aI385
aI1
aa(lp970
I471
aI385
aI1
aa(lp971
I398
aI385
aI1
aa(lp972
I302
aI385
aI1
aa(lp973
I270
aI385
aI1
aa(lp974
I224
aI385
aI1
aa(lp975
I219
aI385
aI1
aa(lp976
I740
aI384
aI1
aa(lp977
I645
aI384
aI1
aa(lp978
I549
aI384
aI1
aa(lp979
I521
aI384
aI1
aa(lp980
I488
aI384
aI1
aa(lp981
I604
aI383
aI1
aa(lp982
I391
aI383
aI1
aa(lp983
I224
aI383
aI1
aa(lp984
I219
aI383
aI1
aa(lp985
I658
aI382
aI1
aa(lp986
I629
aI382
aI1
aa(lp987
I472
aI382
aI1
aa(lp988
I468
aI382
aI1
aa(lp989
I465
aI382
aI1
aa(lp990
I461
aI382
aI1
aa(lp991
I456
aI382
aI1
aa(lp992
I454
aI382
aI1
aa(lp993
I318
aI382
aI1
aa(lp994
I224
aI382
aI1
aa(lp995
I223
aI382
aI1
aa(lp996
I800
aI381
aI1
aa(lp997
I627
aI381
aI1
aa(lp998
I508
aI381
aI1
aa(lp999
I475
aI381
aI1
aa(lp1000
I469
aI381
aI1
aa(lp1001
I450
aI381
aI1
aa(lp1002
I385
aI381
aI1
aa(lp1003
I224
aI381
aI1
aa(lp1004
I666
aI380
aI1
aa(lp1005
I503
aI380
aI1
aa(lp1006
I322
aI380
aI1
aa(lp1007
I216
aI380
aI1
aa(lp1008
I693
aI379
aI1
aa(lp1009
I514
aI379
aI1
aa(lp1010
I446
aI379
aI1
aa(lp1011
I414
aI379
aI1
aa(lp1012
I379
aI379
aI1
aa(lp1013
I357
aI379
aI1
aa(lp1014
I322
aI379
aI1
aa(lp1015
I222
aI379
aI1
aa(lp1016
I221
aI379
aI1
aa(lp1017
I219
aI379
aI1
aa(lp1018
I216
aI379
aI1
aa(lp1019
I766
aI378
aI1
aa(lp1020
I681
aI378
aI1
aa(lp1021
I679
aI378
aI1
aa(lp1022
I216
aI378
aI1
aa(lp1023
I156
aI378
aI1
aa(lp1024
I675
aI377
aI1
aa(lp1025
I588
aI377
aI1
aa(lp1026
I482
aI377
aI1
aa(lp1027
I223
aI377
aI1
aa(lp1028
I216
aI377
aI1
aa(lp1029
I699
aI376
aI1
aa(lp1030
I696
aI376
aI1
aa(lp1031
I695
aI376
aI1
aa(lp1032
I694
aI376
aI1
aa(lp1033
I693
aI376
aI1
aa(lp1034
I442
aI376
aI1
aa(lp1035
I374
aI376
aI1
aa(lp1036
I324
aI376
aI1
aa(lp1037
I307
aI376
aI1
aa(lp1038
I220
aI376
aI1
aa(lp1039
I216
aI376
aI1
aa(lp1040
I708
aI375
aI1
aa(lp1041
I706
aI375
aI1
aa(lp1042
I703
aI375
aI1
aa(lp1043
I689
aI375
aI1
aa(lp1044
I592
aI375
aI1
aa(lp1045
I538
aI375
aI1
aa(lp1046
I532
aI375
aI1
aa(lp1047
I374
aI375
aI1
aa(lp1048
I223
aI375
aI1
aa(lp1049
I710
aI374
aI1
aa(lp1050
I437
aI374
aI1
aa(lp1051
I350
aI374
aI1
aa(lp1052
I220
aI374
aI1
aa(lp1053
I147
aI374
aI1
aa(lp1054
I771
aI373
aI1
aa(lp1055
I711
aI373
aI1
aa(lp1056
I483
aI373
aI1
aa(lp1057
I365
aI373
aI1
aa(lp1058
I349
aI373
aI1
aa(lp1059
I223
aI373
aI1
aa(lp1060
I220
aI373
aI1
aa(lp1061
I681
aI372
aI1
aa(lp1062
I591
aI372
aI1
aa(lp1063
I441
aI372
aI1
aa(lp1064
I429
aI372
aI1
aa(lp1065
I425
aI372
aI1
aa(lp1066
I223
aI372
aI1
aa(lp1067
I222
aI372
aI1
aa(lp1068
I717
aI371
aI1
aa(lp1069
I695
aI371
aI1
aa(lp1070
I354
aI371
aI1
aa(lp1071
I310
aI371
aI1
aa(lp1072
I901
aI370
aI1
aa(lp1073
I591
aI370
aI1
aa(lp1074
I547
aI370
aI1
aa(lp1075
I352
aI370
aI1
aa(lp1076
I242
aI370
aI1
aa(lp1077
I216
aI370
aI1
aa(lp1078
I665
aI369
aI1
aa(lp1079
I502
aI369
aI1
aa(lp1080
I432
aI369
aI1
aa(lp1081
I423
aI369
aI1
aa(lp1082
I216
aI369
aI1
aa(lp1083
I168
aI369
aI1
aa(lp1084
I800
aI368
aI1
aa(lp1085
I715
aI368
aI1
aa(lp1086
I549
aI368
aI1
aa(lp1087
I419
aI368
aI1
aa(lp1088
I365
aI368
aI1
aa(lp1089
I328
aI368
aI1
aa(lp1090
I223
aI368
aI1
aa(lp1091
I222
aI368
aI1
aa(lp1092
I216
aI368
aI1
aa(lp1093
I681
aI367
aI1
aa(lp1094
I601
aI367
aI1
aa(lp1095
I549
aI367
aI1
aa(lp1096
I528
aI367
aI1
aa(lp1097
I501
aI367
aI1
aa(lp1098
I484
aI367
aI1
aa(lp1099
I417
aI367
aI1
aa(lp1100
I330
aI367
aI1
aa(lp1101
I222
aI367
aI1
aa(lp1102
I717
aI366
aI1
aa(lp1103
I646
aI366
aI1
aa(lp1104
I546
aI366
aI1
aa(lp1105
I540
aI366
aI1
aa(lp1106
I415
aI366
aI1
aa(lp1107
I350
aI366
aI1
aa(lp1108
I328
aI366
aI1
aa(lp1109
I223
aI366
aI1
aa(lp1110
I222
aI366
aI1
aa(lp1111
I216
aI366
aI1
aa(lp1112
I186
aI366
aI1
aa(lp1113
I328
aI365
aI1
aa(lp1114
I223
aI365
aI1
aa(lp1115
I222
aI365
aI1
aa(lp1116
I216
aI365
aI1
aa(lp1117
I545
aI364
aI1
aa(lp1118
I298
aI364
aI1
aa(lp1119
I223
aI364
aI1
aa(lp1120
I216
aI364
aI1
aa(lp1121
I540
aI363
aI1
aa(lp1122
I424
aI363
aI1
aa(lp1123
I312
aI363
aI1
aa(lp1124
I285
aI363
aI1
aa(lp1125
I223
aI363
aI1
aa(lp1126
I791
aI362
aI1
aa(lp1127
I680
aI362
aI1
aa(lp1128
I587
aI362
aI1
aa(lp1129
I533
aI362
aI1
aa(lp1130
I485
aI362
aI1
aa(lp1131
I431
aI362
aI1
aa(lp1132
I223
aI362
aI1
aa(lp1133
I222
aI362
aI1
aa(lp1134
I216
aI362
aI1
aa(lp1135
I846
aI361
aI1
aa(lp1136
I838
aI361
aI1
aa(lp1137
I745
aI361
aI1
aa(lp1138
I716
aI361
aI1
aa(lp1139
I443
aI361
aI1
aa(lp1140
I216
aI361
aI1
aa(lp1141
I180
aI361
aI1
aa(lp1142
I720
aI360
aI1
aa(lp1143
I658
aI360
aI1
aa(lp1144
I526
aI360
aI1
aa(lp1145
I523
aI360
aI1
aa(lp1146
I487
aI360
aI1
aa(lp1147
I470
aI360
aI1
aa(lp1148
I224
aI360
aI1
aa(lp1149
I148
aI360
aI1
aa(lp1150
I713
aI359
aI1
aa(lp1151
I615
aI359
aI1
aa(lp1152
I511
aI359
aI1
aa(lp1153
I449
aI359
aI1
aa(lp1154
I224
aI359
aI1
aa(lp1155
I216
aI359
aI1
aa(lp1156
I161
aI359
aI1
aa(lp1157
I160
aI359
aI1
aa(lp1158
I591
aI358
aI1
aa(lp1159
I578
aI358
aI1
aa(lp1160
I503
aI358
aI1
aa(lp1161
I462
aI358
aI1
aa(lp1162
I456
aI358
aI1
aa(lp1163
I377
aI358
aI1
aa(lp1164
I269
aI358
aI1
aa(lp1165
I222
aI358
aI1
aa(lp1166
I217
aI358
aI1
aa(lp1167
I161
aI358
aI1
aa(lp1168
I970
aI357
aI1
aa(lp1169
I496
aI357
aI1
aa(lp1170
I489
aI357
aI1
aa(lp1171
I487
aI357
aI1
aa(lp1172
I474
aI357
aI1
aa(lp1173
I424
aI357
aI1
aa(lp1174
I339
aI357
aI1
aa(lp1175
I970
aI356
aI1
aa(lp1176
I969
aI356
aI1
aa(lp1177
I968
aI356
aI1
aa(lp1178
I222
aI356
aI1
aa(lp1179
I195
aI356
aI1
aa(lp1180
I708
aI355
aI1
aa(lp1181
I678
aI355
aI1
aa(lp1182
I621
aI355
aI1
aa(lp1183
I489
aI355
aI1
aa(lp1184
I224
aI355
aI1
aa(lp1185
I160
aI355
aI1
aa(lp1186
I496
aI354
aI1
aa(lp1187
I386
aI354
aI1
aa(lp1188
I353
aI354
aI1
aa(lp1189
I334
aI354
aI1
aa(lp1190
I314
aI354
aI1
aa(lp1191
I764
aI353
aI1
aa(lp1192
I655
aI353
aI1
aa(lp1193
I568
aI353
aI1
aa(lp1194
I547
aI353
aI1
aa(lp1195
I523
aI353
aI1
aa(lp1196
I321
aI353
aI1
aa(lp1197
I224
aI353
aI1
aa(lp1198
I961
aI352
aI1
aa(lp1199
I464
aI352
aI1
aa(lp1200
I444
aI352
aI1
aa(lp1201
I221
aI352
aI1
aa(lp1202
I220
aI352
aI1
aa(lp1203
I152
aI352
aI1
aa(lp1204
I715
aI351
aI1
aa(lp1205
I643
aI351
aI1
aa(lp1206
I630
aI351
aI1
aa(lp1207
I492
aI351
aI1
aa(lp1208
I413
aI351
aI1
aa(lp1209
I294
aI351
aI1
aa(lp1210
I224
aI351
aI1
aa(lp1211
I707
aI350
aI1
aa(lp1212
I675
aI350
aI1
aa(lp1213
I225
aI350
aI1
aa(lp1214
I220
aI350
aI1
aa(lp1215
I651
aI349
aI1
aa(lp1216
I468
aI349
aI1
aa(lp1217
I301
aI349
aI1
aa(lp1218
I271
aI349
aI1
aa(lp1219
I221
aI349
aI1
aa(lp1220
I159
aI349
aI1
aa(lp1221
I647
aI348
aI1
aa(lp1222
I626
aI348
aI1
aa(lp1223
I608
aI348
aI1
aa(lp1224
I554
aI348
aI1
aa(lp1225
I469
aI348
aI1
aa(lp1226
I388
aI348
aI1
aa(lp1227
I631
aI347
aI1
aa(lp1228
I502
aI347
aI1
aa(lp1229
I488
aI347
aI1
aa(lp1230
I474
aI347
aI1
aa(lp1231
I325
aI347
aI1
aa(lp1232
I226
aI347
aI1
aa(lp1233
I225
aI347
aI1
aa(lp1234
I157
aI347
aI1
aa(lp1235
I642
aI346
aI1
aa(lp1236
I635
aI346
aI1
aa(lp1237
I616
aI346
aI1
aa(lp1238
I537
aI346
aI1
aa(lp1239
I523
aI346
aI1
aa(lp1240
I515
aI346
aI1
aa(lp1241
I501
aI346
aI1
aa(lp1242
I393
aI346
aI1
aa(lp1243
I281
aI346
aI1
aa(lp1244
I238
aI346
aI1
aa(lp1245
I227
aI346
aI1
aa(lp1246
I220
aI346
aI1
aa(lp1247
I156
aI346
aI1
aa(lp1248
I394
aI345
aI1
aa(lp1249
I393
aI345
aI1
aa(lp1250
I347
aI345
aI1
aa(lp1251
I226
aI345
aI1
aa(lp1252
I225
aI345
aI1
aa(lp1253
I792
aI344
aI1
aa(lp1254
I523
aI344
aI1
aa(lp1255
I338
aI344
aI1
aa(lp1256
I221
aI344
aI1
aa(lp1257
I494
aI343
aI1
aa(lp1258
I226
aI343
aI1
aa(lp1259
I224
aI343
aI1
aa(lp1260
I223
aI343
aI1
aa(lp1261
I770
aI342
aI1
aa(lp1262
I673
aI342
aI1
aa(lp1263
I617
aI342
aI1
aa(lp1264
I500
aI342
aI1
aa(lp1265
I220
aI342
aI1
aa(lp1266
I694
aI341
aI1
aa(lp1267
I573
aI341
aI1
aa(lp1268
I396
aI341
aI1
aa(lp1269
I209
aI341
aI1
aa(lp1270
I802
aI340
aI1
aa(lp1271
I489
aI340
aI1
aa(lp1272
I474
aI340
aI1
aa(lp1273
I387
aI340
aI1
aa(lp1274
I370
aI340
aI1
aa(lp1275
I220
aI340
aI1
aa(lp1276
I842
aI339
aI1
aa(lp1277
I341
aI339
aI1
aa(lp1278
I225
aI339
aI1
aa(lp1279
I224
aI339
aI1
aa(lp1280
I166
aI339
aI1
aa(lp1281
I398
aI338
aI1
aa(lp1282
I225
aI338
aI1
aa(lp1283
I196
aI338
aI1
aa(lp1284
I527
aI337
aI1
aa(lp1285
I526
aI337
aI1
aa(lp1286
I223
aI337
aI1
aa(lp1287
I221
aI337
aI1
aa(lp1288
I220
aI337
aI1
aa(lp1289
I466
aI336
aI1
aa(lp1290
I465
aI336
aI1
aa(lp1291
I464
aI336
aI1
aa(lp1292
I400
aI336
aI1
aa(lp1293
I625
aI335
aI1
aa(lp1294
I621
aI335
aI1
aa(lp1295
I528
aI335
aI1
aa(lp1296
I527
aI335
aI1
aa(lp1297
I461
aI335
aI1
aa(lp1298
I457
aI335
aI1
aa(lp1299
I450
aI335
aI1
aa(lp1300
I225
aI335
aI1
aa(lp1301
I220
aI335
aI1
aa(lp1302
I845
aI334
aI1
aa(lp1303
I723
aI334
aI1
aa(lp1304
I482
aI334
aI1
aa(lp1305
I453
aI334
aI1
aa(lp1306
I301
aI334
aI1
aa(lp1307
I273
aI334
aI1
aa(lp1308
I221
aI334
aI1
aa(lp1309
I191
aI334
aI1
aa(lp1310
I872
aI333
aI1
aa(lp1311
I715
aI333
aI1
aa(lp1312
I659
aI333
aI1
aa(lp1313
I529
aI333
aI1
aa(lp1314
I482
aI333
aI1
aa(lp1315
I445
aI333
aI1
aa(lp1316
I443
aI333
aI1
aa(lp1317
I442
aI333
aI1
aa(lp1318
I403
aI333
aI1
aa(lp1319
I220
aI333
aI1
aa(lp1320
I188
aI333
aI1
aa(lp1321
I158
aI333
aI1
aa(lp1322
I587
aI332
aI1
aa(lp1323
I530
aI332
aI1
aa(lp1324
I472
aI332
aI1
aa(lp1325
I454
aI332
aI1
aa(lp1326
I450
aI332
aI1
aa(lp1327
I448
aI332
aI1
aa(lp1328
I441
aI332
aI1
aa(lp1329
I309
aI332
aI1
aa(lp1330
I238
aI332
aI1
aa(lp1331
I225
aI332
aI1
aa(lp1332
I222
aI332
aI1
aa(lp1333
I217
aI332
aI1
aa(lp1334
I927
aI331
aI1
aa(lp1335
I770
aI331
aI1
aa(lp1336
I482
aI331
aI1
aa(lp1337
I471
aI331
aI1
aa(lp1338
I448
aI331
aI1
aa(lp1339
I439
aI331
aI1
aa(lp1340
I403
aI331
aI1
aa(lp1341
I220
aI331
aI1
aa(lp1342
I532
aI330
aI1
aa(lp1343
I482
aI330
aI1
aa(lp1344
I447
aI330
aI1
aa(lp1345
I438
aI330
aI1
aa(lp1346
I437
aI330
aI1
aa(lp1347
I422
aI330
aI1
aa(lp1348
I219
aI330
aI1
aa(lp1349
I499
aI329
aI1
aa(lp1350
I482
aI329
aI1
aa(lp1351
I433
aI329
aI1
aa(lp1352
I225
aI329
aI1
aa(lp1353
I223
aI329
aI1
aa(lp1354
I683
aI328
aI1
aa(lp1355
I564
aI328
aI1
aa(lp1356
I451
aI328
aI1
aa(lp1357
I446
aI328
aI1
aa(lp1358
I445
aI328
aI1
aa(lp1359
I406
aI328
aI1
aa(lp1360
I223
aI328
aI1
aa(lp1361
I483
aI327
aI1
aa(lp1362
I475
aI327
aI1
aa(lp1363
I345
aI327
aI1
aa(lp1364
I335
aI327
aI1
aa(lp1365
I226
aI327
aI1
aa(lp1366
I224
aI327
aI1
aa(lp1367
I190
aI327
aI1
aa(lp1368
I766
aI326
aI1
aa(lp1369
I669
aI326
aI1
aa(lp1370
I479
aI326
aI1
aa(lp1371
I444
aI326
aI1
aa(lp1372
I220
aI326
aI1
aa(lp1373
I219
aI326
aI1
aa(lp1374
I707
aI325
aI1
aa(lp1375
I654
aI325
aI1
aa(lp1376
I607
aI325
aI1
aa(lp1377
I442
aI325
aI1
aa(lp1378
I398
aI325
aI1
aa(lp1379
I309
aI325
aI1
aa(lp1380
I231
aI325
aI1
aa(lp1381
I228
aI325
aI1
aa(lp1382
I224
aI325
aI1
aa(lp1383
I608
aI324
aI1
aa(lp1384
I606
aI324
aI1
aa(lp1385
I605
aI324
aI1
aa(lp1386
I483
aI324
aI1
aa(lp1387
I234
aI324
aI1
aa(lp1388
I864
aI323
aI1
aa(lp1389
I671
aI323
aI1
aa(lp1390
I602
aI323
aI1
aa(lp1391
I535
aI323
aI1
aa(lp1392
I455
aI323
aI1
aa(lp1393
I438
aI323
aI1
aa(lp1394
I409
aI323
aI1
aa(lp1395
I387
aI323
aI1
aa(lp1396
I240
aI323
aI1
aa(lp1397
I237
aI323
aI1
aa(lp1398
I483
aI322
aI1
aa(lp1399
I455
aI322
aI1
aa(lp1400
I431
aI322
aI1
aa(lp1401
I420
aI322
aI1
aa(lp1402
I417
aI322
aI1
aa(lp1403
I415
aI322
aI1
aa(lp1404
I414
aI322
aI1
aa(lp1405
I410
aI322
aI1
aa(lp1406
I242
aI322
aI1
aa(lp1407
I220
aI322
aI1
aa(lp1408
I190
aI322
aI1
aa(lp1409
I154
aI322
aI1
aa(lp1410
I623
aI321
aI1
aa(lp1411
I617
aI321
aI1
aa(lp1412
I613
aI321
aI1
aa(lp1413
I609
aI321
aI1
aa(lp1414
I606
aI321
aI1
aa(lp1415
I603
aI321
aI1
aa(lp1416
I601
aI321
aI1
aa(lp1417
I598
aI321
aI1
aa(lp1418
I592
aI321
aI1
aa(lp1419
I471
aI321
aI1
aa(lp1420
I404
aI321
aI1
aa(lp1421
I303
aI321
aI1
aa(lp1422
I245
aI321
aI1
aa(lp1423
I244
aI321
aI1
aa(lp1424
I769
aI320
aI1
aa(lp1425
I670
aI320
aI1
aa(lp1426
I626
aI320
aI1
aa(lp1427
I591
aI320
aI1
aa(lp1428
I484
aI320
aI1
aa(lp1429
I483
aI320
aI1
aa(lp1430
I467
aI320
aI1
aa(lp1431
I416
aI320
aI1
aa(lp1432
I412
aI320
aI1
aa(lp1433
I381
aI320
aI1
aa(lp1434
I300
aI320
aI1
aa(lp1435
I252
aI320
aI1
aa(lp1436
I250
aI320
aI1
aa(lp1437
I249
aI320
aI1
aa(lp1438
I248
aI320
aI1
aa(lp1439
I247
aI320
aI1
aa(lp1440
I809
aI319
aI1
aa(lp1441
I636
aI319
aI1
aa(lp1442
I635
aI319
aI1
aa(lp1443
I633
aI319
aI1
aa(lp1444
I631
aI319
aI1
aa(lp1445
I629
aI319
aI1
aa(lp1446
I598
aI319
aI1
aa(lp1447
I597
aI319
aI1
aa(lp1448
I595
aI319
aI1
aa(lp1449
I547
aI319
aI1
aa(lp1450
I455
aI319
aI1
aa(lp1451
I432
aI319
aI1
aa(lp1452
I410
aI319
aI1
aa(lp1453
I387
aI319
aI1
aa(lp1454
I352
aI319
aI1
aa(lp1455
I262
aI319
aI1
aa(lp1456
I256
aI319
aI1
aa(lp1457
I219
aI319
aI1
aa(lp1458
I190
aI319
aI1
aa(lp1459
I638
aI318
aI1
aa(lp1460
I632
aI318
aI1
aa(lp1461
I604
aI318
aI1
aa(lp1462
I601
aI318
aI1
aa(lp1463
I490
aI318
aI1
aa(lp1464
I409
aI318
aI1
aa(lp1465
I405
aI318
aI1
aa(lp1466
I376
aI318
aI1
aa(lp1467
I274
aI318
aI1
aa(lp1468
I270
aI318
aI1
aa(lp1469
I640
aI317
aI1
aa(lp1470
I625
aI317
aI1
aa(lp1471
I607
aI317
aI1
aa(lp1472
I538
aI317
aI1
aa(lp1473
I416
aI317
aI1
aa(lp1474
I372
aI317
aI1
aa(lp1475
I370
aI317
aI1
aa(lp1476
I369
aI317
aI1
aa(lp1477
I278
aI317
aI1
aa(lp1478
I191
aI317
aI1
aa(lp1479
I593
aI316
aI1
aa(lp1480
I568
aI316
aI1
aa(lp1481
I525
aI316
aI1
aa(lp1482
I495
aI316
aI1
aa(lp1483
I485
aI316
aI1
aa(lp1484
I480
aI316
aI1
aa(lp1485
I464
aI316
aI1
aa(lp1486
I452
aI316
aI1
aa(lp1487
I447
aI316
aI1
aa(lp1488
I424
aI316
aI1
aa(lp1489
I398
aI316
aI1
aa(lp1490
I390
aI316
aI1
aa(lp1491
I345
aI316
aI1
aa(lp1492
I275
aI316
aI1
aa(lp1493
I220
aI316
aI1
aa(lp1494
I659
aI315
aI1
aa(lp1495
I649
aI315
aI1
aa(lp1496
I644
aI315
aI1
aa(lp1497
I611
aI315
aI1
aa(lp1498
I592
aI315
aI1
aa(lp1499
I463
aI315
aI1
aa(lp1500
I387
aI315
aI1
aa(lp1501
I386
aI315
aI1
aa(lp1502
I283
aI315
aI1
aa(lp1503
I762
aI314
aI1
aa(lp1504
I615
aI314
aI1
aa(lp1505
I612
aI314
aI1
aa(lp1506
I598
aI314
aI1
aa(lp1507
I591
aI314
aI1
aa(lp1508
I483
aI314
aI1
aa(lp1509
I429
aI314
aI1
aa(lp1510
I363
aI314
aI1
aa(lp1511
I192
aI314
aI1
aa(lp1512
I661
aI313
aI1
aa(lp1513
I655
aI313
aI1
aa(lp1514
I652
aI313
aI1
aa(lp1515
I481
aI313
aI1
aa(lp1516
I480
aI313
aI1
aa(lp1517
I477
aI313
aI1
aa(lp1518
I475
aI313
aI1
aa(lp1519
I472
aI313
aI1
aa(lp1520
I437
aI313
aI1
aa(lp1521
I433
aI313
aI1
aa(lp1522
I356
aI313
aI1
aa(lp1523
I219
aI313
aI1
aa(lp1524
I765
aI312
aI1
aa(lp1525
I657
aI312
aI1
aa(lp1526
I539
aI312
aI1
aa(lp1527
I469
aI312
aI1
aa(lp1528
I467
aI312
aI1
aa(lp1529
I464
aI312
aI1
aa(lp1530
I461
aI312
aI1
aa(lp1531
I440
aI312
aI1
aa(lp1532
I386
aI312
aI1
aa(lp1533
I220
aI312
aI1
aa(lp1534
I192
aI312
aI1
aa(lp1535
I657
aI311
aI1
aa(lp1536
I460
aI311
aI1
aa(lp1537
I459
aI311
aI1
aa(lp1538
I451
aI311
aI1
aa(lp1539
I445
aI311
aI1
aa(lp1540
I367
aI311
aI1
aa(lp1541
I347
aI311
aI1
aa(lp1542
I293
aI311
aI1
aa(lp1543
I224
aI311
aI1
aa(lp1544
I713
aI310
aI1
aa(lp1545
I657
aI310
aI1
aa(lp1546
I585
aI310
aI1
aa(lp1547
I464
aI310
aI1
aa(lp1548
I386
aI310
aI1
aa(lp1549
I193
aI310
aI1
aa(lp1550
I774
aI309
aI1
aa(lp1551
I468
aI309
aI1
aa(lp1552
I386
aI309
aI1
aa(lp1553
I358
aI309
aI1
aa(lp1554
I302
aI309
aI1
aa(lp1555
I582
aI308
aI1
aa(lp1556
I542
aI308
aI1
aa(lp1557
I316
aI308
aI1
aa(lp1558
I249
aI308
aI1
aa(lp1559
I248
aI308
aI1
aa(lp1560
I245
aI308
aI1
aa(lp1561
I243
aI308
aI1
aa(lp1562
I242
aI308
aI1
aa(lp1563
I241
aI308
aI1
aa(lp1564
I240
aI308
aI1
aa(lp1565
I239
aI308
aI1
aa(lp1566
I238
aI308
aI1
aa(lp1567
I236
aI308
aI1
aa(lp1568
I234
aI308
aI1
aa(lp1569
I232
aI308
aI1
aa(lp1570
I229
aI308
aI1
aa(lp1571
I228
aI308
aI1
aa(lp1572
I227
aI308
aI1
aa(lp1573
I225
aI308
aI1
aa(lp1574
I221
aI308
aI1
aa(lp1575
I195
aI308
aI1
aa(lp1576
I152
aI308
aI1
aa(lp1577
I645
aI307
aI1
aa(lp1578
I589
aI307
aI1
aa(lp1579
I325
aI307
aI1
aa(lp1580
I277
aI307
aI1
aa(lp1581
I258
aI307
aI1
aa(lp1582
I219
aI307
aI1
aa(lp1583
I543
aI306
aI1
aa(lp1584
I444
aI306
aI1
aa(lp1585
I401
aI306
aI1
aa(lp1586
I383
aI306
aI1
aa(lp1587
I360
aI306
aI1
aa(lp1588
I304
aI306
aI1
aa(lp1589
I289
aI306
aI1
aa(lp1590
I199
aI306
aI1
aa(lp1591
I754
aI305
aI1
aa(lp1592
I605
aI305
aI1
aa(lp1593
I580
aI305
aI1
aa(lp1594
I479
aI305
aI1
aa(lp1595
I293
aI305
aI1
aa(lp1596
I289
aI305
aI1
aa(lp1597
I286
aI305
aI1
aa(lp1598
I282
aI305
aI1
aa(lp1599
I742
aI304
aI1
aa(lp1600
I710
aI304
aI1
aa(lp1601
I645
aI304
aI1
aa(lp1602
I545
aI304
aI1
aa(lp1603
I505
aI304
aI1
aa(lp1604
I277
aI304
aI1
aa(lp1605
I271
aI304
aI1
aa(lp1606
I248
aI304
aI1
aa(lp1607
I244
aI304
aI1
aa(lp1608
I239
aI304
aI1
aa(lp1609
I236
aI304
aI1
aa(lp1610
I233
aI304
aI1
aa(lp1611
I232
aI304
aI1
aa(lp1612
I231
aI304
aI1
aa(lp1613
I229
aI304
aI1
aa(lp1614
I228
aI304
aI1
aa(lp1615
I227
aI304
aI1
aa(lp1616
I225
aI304
aI1
aa(lp1617
I224
aI304
aI1
aa(lp1618
I221
aI304
aI1
aa(lp1619
I219
aI304
aI1
aa(lp1620
I211
aI304
aI1
aa(lp1621
I815
aI303
aI1
aa(lp1622
I635
aI303
aI1
aa(lp1623
I322
aI303
aI1
aa(lp1624
I265
aI303
aI1
aa(lp1625
I261
aI303
aI1
aa(lp1626
I259
aI303
aI1
aa(lp1627
I257
aI303
aI1
aa(lp1628
I256
aI303
aI1
aa(lp1629
I255
aI303
aI1
aa(lp1630
I253
aI303
aI1
aa(lp1631
I252
aI303
aI1
aa(lp1632
I251
aI303
aI1
aa(lp1633
I699
aI302
aI1
aa(lp1634
I698
aI302
aI1
aa(lp1635
I697
aI302
aI1
aa(lp1636
I650
aI302
aI1
aa(lp1637
I575
aI302
aI1
aa(lp1638
I547
aI302
aI1
aa(lp1639
I300
aI302
aI1
aa(lp1640
I149
aI302
aI1
aa(lp1641
I548
aI301
aI1
aa(lp1642
I498
aI301
aI1
aa(lp1643
I475
aI301
aI1
aa(lp1644
I307
aI301
aI1
aa(lp1645
I222
aI301
aI1
aa(lp1646
I219
aI301
aI1
aa(lp1647
I701
aI300
aI1
aa(lp1648
I700
aI300
aI1
aa(lp1649
I550
aI300
aI1
aa(lp1650
I512
aI300
aI1
aa(lp1651
I482
aI300
aI1
aa(lp1652
I377
aI300
aI1
aa(lp1653
I355
aI300
aI1
aa(lp1654
I220
aI300
aI1
aa(lp1655
I219
aI300
aI1
aa(lp1656
I621
aI299
aI1
aa(lp1657
I569
aI299
aI1
aa(lp1658
I464
aI299
aI1
aa(lp1659
I360
aI299
aI1
aa(lp1660
I351
aI299
aI1
aa(lp1661
I704
aI298
aI1
aa(lp1662
I561
aI298
aI1
aa(lp1663
I554
aI298
aI1
aa(lp1664
I552
aI298
aI1
aa(lp1665
I511
aI298
aI1
aa(lp1666
I494
aI298
aI1
aa(lp1667
I440
aI298
aI1
aa(lp1668
I314
aI298
aI1
aa(lp1669
I733
aI297
aI1
aa(lp1670
I644
aI297
aI1
aa(lp1671
I601
aI297
aI1
aa(lp1672
I565
aI297
aI1
aa(lp1673
I562
aI297
aI1
aa(lp1674
I561
aI297
aI1
aa(lp1675
I558
aI297
aI1
aa(lp1676
I556
aI297
aI1
aa(lp1677
I148
aI297
aI1
aa(lp1678
I774
aI296
aI1
aa(lp1679
I708
aI296
aI1
aa(lp1680
I572
aI296
aI1
aa(lp1681
I386
aI296
aI1
aa(lp1682
I674
aI294
aI1
aa(lp1683
I629
aI294
aI1
aa(lp1684
I564
aI294
aI1
aa(lp1685
I499
aI294
aI1
aa(lp1686
I481
aI294
aI1
aa(lp1687
I463
aI294
aI1
aa(lp1688
I899
aI293
aI1
aa(lp1689
I763
aI293
aI1
aa(lp1690
I666
aI293
aI1
aa(lp1691
I534
aI293
aI1
aa(lp1692
I374
aI293
aI1
aa(lp1693
I701
aI292
aI1
aa(lp1694
I626
aI292
aI1
aa(lp1695
I556
aI292
aI1
aa(lp1696
I465
aI292
aI1
aa(lp1697
I302
aI292
aI1
aa(lp1698
I714
aI291
aI1
aa(lp1699
I659
aI291
aI1
aa(lp1700
I588
aI291
aI1
aa(lp1701
I446
aI291
aI1
aa(lp1702
I436
aI291
aI1
aa(lp1703
I332
aI291
aI1
aa(lp1704
I711
aI290
aI1
aa(lp1705
I608
aI290
aI1
aa(lp1706
I713
aI289
aI1
aa(lp1707
I630
aI289
aI1
aa(lp1708
I616
aI289
aI1
aa(lp1709
I614
aI289
aI1
aa(lp1710
I606
aI289
aI1
aa(lp1711
I694
aI288
aI1
aa(lp1712
I634
aI288
aI1
aa(lp1713
I526
aI288
aI1
aa(lp1714
I478
aI288
aI1
aa(lp1715
I426
aI288
aI1
aa(lp1716
I378
aI288
aI1
aa(lp1717
I333
aI288
aI1
aa(lp1718
I870
aI287
aI1
aa(lp1719
I725
aI287
aI1
aa(lp1720
I674
aI287
aI1
aa(lp1721
I618
aI287
aI1
aa(lp1722
I512
aI287
aI1
aa(lp1723
I429
aI287
aI1
aa(lp1724
I360
aI287
aI1
aa(lp1725
I139
aI287
aI1
aa(lp1726
I871
aI286
aI1
aa(lp1727
I846
aI286
aI1
aa(lp1728
I816
aI286
aI1
aa(lp1729
I802
aI286
aI1
aa(lp1730
I776
aI286
aI1
aa(lp1731
I685
aI286
aI1
aa(lp1732
I680
aI286
aI1
aa(lp1733
I619
aI286
aI1
aa(lp1734
I618
aI286
aI1
aa(lp1735
I412
aI286
aI1
aa(lp1736
I144
aI286
aI1
aa(lp1737
I682
aI285
aI1
aa(lp1738
I619
aI285
aI1
aa(lp1739
I602
aI285
aI1
aa(lp1740
I416
aI285
aI1
aa(lp1741
I377
aI285
aI1
aa(lp1742
I366
aI285
aI1
aa(lp1743
I347
aI285
aI1
aa(lp1744
I682
aI284
aI1
aa(lp1745
I681
aI284
aI1
aa(lp1746
I619
aI284
aI1
aa(lp1747
I66
aI284
aI1
aa(lp1748
I63
aI284
aI1
aa(lp1749
I907
aI283
aI1
aa(lp1750
I817
aI283
aI1
aa(lp1751
I709
aI283
aI1
aa(lp1752
I655
aI283
aI1
aa(lp1753
I187
aI283
aI1
aa(lp1754
I62
aI283
aI1
aa(lp1755
I729
aI282
aI1
aa(lp1756
I704
aI282
aI1
aa(lp1757
I619
aI282
aI1
aa(lp1758
I561
aI282
aI1
aa(lp1759
I425
aI282
aI1
aa(lp1760
I282
aI282
aI1
aa(lp1761
I187
aI282
aI1
aa(lp1762
I185
aI282
aI1
aa(lp1763
I751
aI281
aI1
aa(lp1764
I721
aI281
aI1
aa(lp1765
I672
aI281
aI1
aa(lp1766
I622
aI281
aI1
aa(lp1767
I601
aI281
aI1
aa(lp1768
I539
aI281
aI1
aa(lp1769
I485
aI281
aI1
aa(lp1770
I306
aI281
aI1
aa(lp1771
I180
aI281
aI1
aa(lp1772
I70
aI281
aI1
aa(lp1773
I862
aI280
aI1
aa(lp1774
I797
aI280
aI1
aa(lp1775
I619
aI280
aI1
aa(lp1776
I516
aI280
aI1
aa(lp1777
I429
aI280
aI1
aa(lp1778
I390
aI280
aI1
aa(lp1779
I73
aI280
aI1
aa(lp1780
I942
aI279
aI1
aa(lp1781
I797
aI279
aI1
aa(lp1782
I795
aI279
aI1
aa(lp1783
I421
aI279
aI1
aa(lp1784
I315
aI279
aI1
aa(lp1785
I177
aI279
aI1
aa(lp1786
I784
aI278
aI1
aa(lp1787
I781
aI278
aI1
aa(lp1788
I664
aI278
aI1
aa(lp1789
I394
aI278
aI1
aa(lp1790
I349
aI278
aI1
aa(lp1791
I67
aI278
aI1
aa(lp1792
I787
aI277
aI1
aa(lp1793
I778
aI277
aI1
aa(lp1794
I619
aI277
aI1
aa(lp1795
I467
aI277
aI1
aa(lp1796
I460
aI277
aI1
aa(lp1797
I446
aI277
aI1
aa(lp1798
I892
aI276
aI1
aa(lp1799
I741
aI276
aI1
aa(lp1800
I733
aI276
aI1
aa(lp1801
I655
aI276
aI1
aa(lp1802
I587
aI276
aI1
aa(lp1803
I472
aI276
aI1
aa(lp1804
I281
aI276
aI1
aa(lp1805
I82
aI276
aI1
aa(lp1806
I81
aI276
aI1
aa(lp1807
I775
aI275
aI1
aa(lp1808
I638
aI275
aI1
aa(lp1809
I619
aI275
aI1
aa(lp1810
I535
aI275
aI1
aa(lp1811
I438
aI275
aI1
aa(lp1812
I435
aI275
aI1
aa(lp1813
I372
aI275
aI1
aa(lp1814
I302
aI275
aI1
aa(lp1815
I281
aI275
aI1
aa(lp1816
I173
aI275
aI1
aa(lp1817
I84
aI275
aI1
aa(lp1818
I712
aI274
aI1
aa(lp1819
I648
aI274
aI1
aa(lp1820
I553
aI274
aI1
aa(lp1821
I476
aI274
aI1
aa(lp1822
I429
aI274
aI1
aa(lp1823
I312
aI274
aI1
aa(lp1824
I287
aI274
aI1
aa(lp1825
I286
aI274
aI1
aa(lp1826
I285
aI274
aI1
aa(lp1827
I284
aI274
aI1
aa(lp1828
I283
aI274
aI1
aa(lp1829
I76
aI274
aI1
aa(lp1830
I775
aI273
aI1
aa(lp1831
I771
aI273
aI1
aa(lp1832
I766
aI273
aI1
aa(lp1833
I761
aI273
aI1
aa(lp1834
I699
aI273
aI1
aa(lp1835
I617
aI273
aI1
aa(lp1836
I483
aI273
aI1
aa(lp1837
I479
aI273
aI1
aa(lp1838
I474
aI273
aI1
aa(lp1839
I473
aI273
aI1
aa(lp1840
I468
aI273
aI1
aa(lp1841
I462
aI273
aI1
aa(lp1842
I424
aI273
aI1
aa(lp1843
I421
aI273
aI1
aa(lp1844
I419
aI273
aI1
aa(lp1845
I355
aI273
aI1
aa(lp1846
I291
aI273
aI1
aa(lp1847
I288
aI273
aI1
aa(lp1848
I86
aI273
aI1
aa(lp1849
I840
aI272
aI1
aa(lp1850
I786
aI272
aI1
aa(lp1851
I760
aI272
aI1
aa(lp1852
I691
aI272
aI1
aa(lp1853
I640
aI272
aI1
aa(lp1854
I616
aI272
aI1
aa(lp1855
I520
aI272
aI1
aa(lp1856
I485
aI272
aI1
aa(lp1857
I451
aI272
aI1
aa(lp1858
I449
aI272
aI1
aa(lp1859
I448
aI272
aI1
aa(lp1860
I446
aI272
aI1
aa(lp1861
I443
aI272
aI1
aa(lp1862
I360
aI272
aI1
aa(lp1863
I350
aI272
aI1
aa(lp1864
I325
aI272
aI1
aa(lp1865
I293
aI272
aI1
aa(lp1866
I954
aI271
aI1
aa(lp1867
I763
aI271
aI1
aa(lp1868
I758
aI271
aI1
aa(lp1869
I749
aI271
aI1
aa(lp1870
I614
aI271
aI1
aa(lp1871
I503
aI271
aI1
aa(lp1872
I487
aI271
aI1
aa(lp1873
I469
aI271
aI1
aa(lp1874
I456
aI271
aI1
aa(lp1875
I453
aI271
aI1
aa(lp1876
I376
aI271
aI1
aa(lp1877
I342
aI271
aI1
aa(lp1878
I297
aI271
aI1
aa(lp1879
I295
aI271
aI1
aa(lp1880
I769
aI270
aI1
aa(lp1881
I756
aI270
aI1
aa(lp1882
I611
aI270
aI1
aa(lp1883
I588
aI270
aI1
aa(lp1884
I531
aI270
aI1
aa(lp1885
I527
aI270
aI1
aa(lp1886
I524
aI270
aI1
aa(lp1887
I523
aI270
aI1
aa(lp1888
I522
aI270
aI1
aa(lp1889
I440
aI270
aI1
aa(lp1890
I847
aI269
aI1
aa(lp1891
I780
aI269
aI1
aa(lp1892
I754
aI269
aI1
aa(lp1893
I608
aI269
aI1
aa(lp1894
I592
aI269
aI1
aa(lp1895
I579
aI269
aI1
aa(lp1896
I563
aI269
aI1
aa(lp1897
I545
aI269
aI1
aa(lp1898
I537
aI269
aI1
aa(lp1899
I443
aI269
aI1
aa(lp1900
I366
aI269
aI1
aa(lp1901
I350
aI269
aI1
aa(lp1902
I343
aI269
aI1
aa(lp1903
I342
aI269
aI1
aa(lp1904
I337
aI269
aI1
aa(lp1905
I315
aI269
aI1
aa(lp1906
I299
aI269
aI1
aa(lp1907
I90
aI269
aI1
aa(lp1908
I849
aI268
aI1
aa(lp1909
I813
aI268
aI1
aa(lp1910
I674
aI268
aI1
aa(lp1911
I632
aI268
aI1
aa(lp1912
I603
aI268
aI1
aa(lp1913
I601
aI268
aI1
aa(lp1914
I597
aI268
aI1
aa(lp1915
I595
aI268
aI1
aa(lp1916
I594
aI268
aI1
aa(lp1917
I593
aI268
aI1
aa(lp1918
I589
aI268
aI1
aa(lp1919
I413
aI268
aI1
aa(lp1920
I343
aI268
aI1
aa(lp1921
I170
aI268
aI1
aa(lp1922
I88
aI268
aI1
aa(lp1923
I841
aI267
aI1
aa(lp1924
I836
aI267
aI1
aa(lp1925
I827
aI267
aI1
aa(lp1926
I812
aI267
aI1
aa(lp1927
I792
aI267
aI1
aa(lp1928
I756
aI267
aI1
aa(lp1929
I604
aI267
aI1
aa(lp1930
I590
aI267
aI1
aa(lp1931
I521
aI267
aI1
aa(lp1932
I308
aI267
aI1
aa(lp1933
I913
aI266
aI1
aa(lp1934
I872
aI266
aI1
aa(lp1935
I849
aI266
aI1
aa(lp1936
I848
aI266
aI1
aa(lp1937
I845
aI266
aI1
aa(lp1938
I751
aI266
aI1
aa(lp1939
I704
aI266
aI1
aa(lp1940
I680
aI266
aI1
aa(lp1941
I657
aI266
aI1
aa(lp1942
I637
aI266
aI1
aa(lp1943
I634
aI266
aI1
aa(lp1944
I396
aI266
aI1
aa(lp1945
I360
aI266
aI1
aa(lp1946
I141
aI266
aI1
aa(lp1947
I95
aI266
aI1
aa(lp1948
I762
aI265
aI1
aa(lp1949
I584
aI265
aI1
aa(lp1950
I407
aI265
aI1
aa(lp1951
I360
aI265
aI1
aa(lp1952
I358
aI265
aI1
aa(lp1953
I304
aI265
aI1
aa(lp1954
I583
aI264
aI1
aa(lp1955
I466
aI264
aI1
aa(lp1956
I385
aI264
aI1
aa(lp1957
I716
aI263
aI1
aa(lp1958
I399
aI263
aI1
aa(lp1959
I360
aI263
aI1
aa(lp1960
I358
aI263
aI1
aa(lp1961
I728
aI262
aI1
aa(lp1962
I570
aI262
aI1
aa(lp1963
I541
aI262
aI1
aa(lp1964
I99
aI262
aI1
aa(lp1965
I964
aI261
aI1
aa(lp1966
I943
aI261
aI1
aa(lp1967
I865
aI261
aI1
aa(lp1968
I737
aI261
aI1
aa(lp1969
I617
aI261
aI1
aa(lp1970
I360
aI261
aI1
aa(lp1971
I344
aI261
aI1
aa(lp1972
I955
aI260
aI1
aa(lp1973
I743
aI260
aI1
aa(lp1974
I742
aI260
aI1
aa(lp1975
I741
aI260
aI1
aa(lp1976
I568
aI260
aI1
aa(lp1977
I307
aI260
aI1
aa(lp1978
I103
aI260
aI1
aa(lp1979
I497
aI259
aI1
aa(lp1980
I401
aI259
aI1
aa(lp1981
I360
aI259
aI1
aa(lp1982
I741
aI258
aI1
aa(lp1983
I544
aI258
aI1
aa(lp1984
I515
aI258
aI1
aa(lp1985
I360
aI258
aI1
aa(lp1986
I383
aI257
aI1
aa(lp1987
I363
aI257
aI1
aa(lp1988
I167
aI257
aI1
aa(lp1989
I739
aI256
aI1
aa(lp1990
I737
aI256
aI1
aa(lp1991
I325
aI256
aI1
aa(lp1992
I965
aI255
aI1
aa(lp1993
I964
aI255
aI1
aa(lp1994
I816
aI255
aI1
aa(lp1995
I736
aI255
aI1
aa(lp1996
I568
aI255
aI1
aa(lp1997
I512
aI255
aI1
aa(lp1998
I466
aI255
aI1
aa(lp1999
I367
aI255
aI1
aa(lp2000
I361
aI255
aI1
aa(lp2001
I349
aI255
aI1
aa(lp2002
I112
aI255
aI1
aa(lp2003
I729
aI254
aI1
aa(lp2004
I634
aI254
aI1
aa(lp2005
I360
aI254
aI1
aa(lp2006
I109
aI254
aI1
aa(lp2007
I717
aI253
aI1
aa(lp2008
I542
aI253
aI1
aa(lp2009
I365
aI253
aI1
aa(lp2010
I361
aI253
aI1
aa(lp2011
I312
aI253
aI1
aa(lp2012
I706
aI252
aI1
aa(lp2013
I673
aI252
aI1
aa(lp2014
I584
aI252
aI1
aa(lp2015
I111
aI252
aI1
aa(lp2016
I782
aI251
aI1
aa(lp2017
I525
aI251
aI1
aa(lp2018
I499
aI251
aI1
aa(lp2019
I415
aI251
aI1
aa(lp2020
I306
aI251
aI1
aa(lp2021
I113
aI251
aI1
aa(lp2022
I958
aI250
aI1
aa(lp2023
I957
aI250
aI1
aa(lp2024
I955
aI250
aI1
aa(lp2025
I726
aI250
aI1
aa(lp2026
I695
aI250
aI1
aa(lp2027
I525
aI250
aI1
aa(lp2028
I509
aI250
aI1
aa(lp2029
I431
aI250
aI1
aa(lp2030
I362
aI250
aI1
aa(lp2031
I300
aI250
aI1
aa(lp2032
I241
aI250
aI1
aa(lp2033
I165
aI250
aI1
aa(lp2034
I954
aI249
aI1
aa(lp2035
I472
aI249
aI1
aa(lp2036
I366
aI249
aI1
aa(lp2037
I116
aI249
aI1
aa(lp2038
I953
aI248
aI1
aa(lp2039
I679
aI248
aI1
aa(lp2040
I662
aI248
aI1
aa(lp2041
I657
aI248
aI1
aa(lp2042
I653
aI248
aI1
aa(lp2043
I650
aI248
aI1
aa(lp2044
I648
aI248
aI1
aa(lp2045
I645
aI248
aI1
aa(lp2046
I439
aI248
aI1
aa(lp2047
I951
aI247
aI1
aa(lp2048
I949
aI247
aI1
aa(lp2049
I600
aI247
aI1
aa(lp2050
I565
aI247
aI1
aa(lp2051
I371
aI247
aI1
aa(lp2052
I362
aI247
aI1
aa(lp2053
I899
aI246
aI1
aa(lp2054
I684
aI246
aI1
aa(lp2055
I526
aI246
aI1
aa(lp2056
I509
aI246
aI1
aa(lp2057
I378
aI246
aI1
aa(lp2058
I374
aI246
aI1
aa(lp2059
I140
aI246
aI1
aa(lp2060
I121
aI246
aI1
aa(lp2061
I779
aI245
aI1
aa(lp2062
I773
aI245
aI1
aa(lp2063
I646
aI245
aI1
aa(lp2064
I492
aI245
aI1
aa(lp2065
I357
aI245
aI1
aa(lp2066
I318
aI245
aI1
aa(lp2067
I165
aI245
aI1
aa(lp2068
I136
aI245
aI1
aa(lp2069
I946
aI244
aI1
aa(lp2070
I942
aI244
aI1
aa(lp2071
I786
aI244
aI1
aa(lp2072
I782
aI244
aI1
aa(lp2073
I760
aI244
aI1
aa(lp2074
I469
aI244
aI1
aa(lp2075
I330
aI244
aI1
aa(lp2076
I269
aI244
aI1
aa(lp2077
I968
aI243
aI1
aa(lp2078
I790
aI243
aI1
aa(lp2079
I711
aI243
aI1
aa(lp2080
I562
aI243
aI1
aa(lp2081
I542
aI243
aI1
aa(lp2082
I498
aI243
aI1
aa(lp2083
I165
aI243
aI1
aa(lp2084
I963
aI242
aI1
aa(lp2085
I936
aI242
aI1
aa(lp2086
I923
aI242
aI1
aa(lp2087
I901
aI242
aI1
aa(lp2088
I848
aI242
aI1
aa(lp2089
I823
aI242
aI1
aa(lp2090
I808
aI242
aI1
aa(lp2091
I801
aI242
aI1
aa(lp2092
I799
aI242
aI1
aa(lp2093
I797
aI242
aI1
aa(lp2094
I796
aI242
aI1
aa(lp2095
I795
aI242
aI1
aa(lp2096
I767
aI242
aI1
aa(lp2097
I382
aI242
aI1
aa(lp2098
I362
aI242
aI1
aa(lp2099
I344
aI242
aI1
aa(lp2100
I335
aI242
aI1
aa(lp2101
I331
aI242
aI1
aa(lp2102
I127
aI242
aI1
aa(lp2103
I747
aI241
aI1
aa(lp2104
I639
aI241
aI1
aa(lp2105
I114
aI241
aI1
aa(lp2106
I903
aI240
aI1
aa(lp2107
I880
aI240
aI1
aa(lp2108
I863
aI240
aI1
aa(lp2109
I522
aI240
aI1
aa(lp2110
I513
aI240
aI1
aa(lp2111
I497
aI240
aI1
aa(lp2112
I463
aI240
aI1
aa(lp2113
I440
aI240
aI1
aa(lp2114
I874
aI239
aI1
aa(lp2115
I737
aI239
aI1
aa(lp2116
I644
aI239
aI1
aa(lp2117
I538
aI239
aI1
aa(lp2118
I511
aI239
aI1
aa(lp2119
I406
aI239
aI1
aa(lp2120
I389
aI239
aI1
aa(lp2121
I165
aI239
aI1
aa(lp2122
I528
aI238
aI1
aa(lp2123
I501
aI238
aI1
aa(lp2124
I492
aI238
aI1
aa(lp2125
I136
aI238
aI1
aa(lp2126
I968
aI237
aI1
aa(lp2127
I929
aI237
aI1
aa(lp2128
I859
aI237
aI1
aa(lp2129
I721
aI237
aI1
aa(lp2130
I482
aI237
aI1
aa(lp2131
I321
aI237
aI1
aa(lp2132
I140
aI237
aI1
aa(lp2133
I830
aI236
aI1
aa(lp2134
I706
aI236
aI1
aa(lp2135
I676
aI236
aI1
aa(lp2136
I506
aI236
aI1
aa(lp2137
I472
aI236
aI1
aa(lp2138
I468
aI236
aI1
aa(lp2139
I439
aI236
aI1
aa(lp2140
I365
aI236
aI1
aa(lp2141
I362
aI236
aI1
aa(lp2142
I331
aI236
aI1
aa(lp2143
I816
aI235
aI1
aa(lp2144
I449
aI235
aI1
aa(lp2145
I367
aI235
aI1
aa(lp2146
I256
aI235
aI1
aa(lp2147
I165
aI235
aI1
aa(lp2148
I151
aI235
aI1
aa(lp2149
I1025
aI234
aI1
aa(lp2150
I743
aI234
aI1
aa(lp2151
I679
aI234
aI1
aa(lp2152
I670
aI234
aI1
aa(lp2153
I438
aI234
aI1
aa(lp2154
I696
aI233
aI1
aa(lp2155
I356
aI233
aI1
aa(lp2156
I252
aI233
aI1
aa(lp2157
I438
aI232
aI1
aa(lp2158
I392
aI232
aI1
aa(lp2159
I373
aI232
aI1
aa(lp2160
I362
aI232
aI1
aa(lp2161
I254
aI232
aI1
aa(lp2162
I253
aI232
aI1
aa(lp2163
I802
aI231
aI1
aa(lp2164
I690
aI231
aI1
aa(lp2165
I272
aI231
aI1
aa(lp2166
I490
aI230
aI1
aa(lp2167
I439
aI230
aI1
aa(lp2168
I362
aI230
aI1
aa(lp2169
I165
aI230
aI1
aa(lp2170
I158
aI230
aI1
aa(lp2171
I154
aI230
aI1
aa(lp2172
I140
aI230
aI1
aa(lp2173
I1061
aI229
aI1
aa(lp2174
I677
aI229
aI1
aa(lp2175
I622
aI229
aI1
aa(lp2176
I472
aI229
aI1
aa(lp2177
I448
aI229
aI1
aa(lp2178
I446
aI229
aI1
aa(lp2179
I445
aI229
aI1
aa(lp2180
I1160
aI228
aI1
aa(lp2181
I684
aI228
aI1
aa(lp2182
I634
aI228
aI1
aa(lp2183
I483
aI228
aI1
aa(lp2184
I451
aI228
aI1
aa(lp2185
I374
aI228
aI1
aa(lp2186
I307
aI228
aI1
aa(lp2187
I1166
aI227
aI1
aa(lp2188
I1145
aI227
aI1
aa(lp2189
I826
aI227
aI1
aa(lp2190
I500
aI227
aI1
aa(lp2191
I480
aI227
aI1
aa(lp2192
I454
aI227
aI1
aa(lp2193
I436
aI227
aI1
aa(lp2194
I368
aI227
aI1
aa(lp2195
I358
aI227
aI1
aa(lp2196
I300
aI227
aI1
aa(lp2197
I161
aI227
aI1
aa(lp2198
I1121
aI226
aI1
aa(lp2199
I680
aI226
aI1
aa(lp2200
I677
aI226
aI1
aa(lp2201
I676
aI226
aI1
aa(lp2202
I479
aI226
aI1
aa(lp2203
I458
aI226
aI1
aa(lp2204
I370
aI226
aI1
aa(lp2205
I326
aI226
aI1
aa(lp2206
I243
aI226
aI1
aa(lp2207
I1099
aI225
aI1
aa(lp2208
I780
aI225
aI1
aa(lp2209
I675
aI225
aI1
aa(lp2210
I461
aI225
aI1
aa(lp2211
I430
aI225
aI1
aa(lp2212
I389
aI225
aI1
aa(lp2213
I372
aI225
aI1
aa(lp2214
I1104
aI224
aI1
aa(lp2215
I676
aI224
aI1
aa(lp2216
I660
aI224
aI1
aa(lp2217
I567
aI224
aI1
aa(lp2218
I487
aI224
aI1
aa(lp2219
I472
aI224
aI1
aa(lp2220
I74
aI224
aI1
aa(lp2221
I838
aI223
aI1
aa(lp2222
I815
aI223
aI1
aa(lp2223
I810
aI223
aI1
aa(lp2224
I619
aI223
aI1
aa(lp2225
I462
aI223
aI1
aa(lp2226
I445
aI223
aI1
aa(lp2227
I439
aI223
aI1
aa(lp2228
I411
aI223
aI1
aa(lp2229
I373
aI223
aI1
aa(lp2230
I161
aI223
aI1
aa(lp2231
I964
aI222
aI1
aa(lp2232
I857
aI222
aI1
aa(lp2233
I670
aI222
aI1
aa(lp2234
I462
aI222
aI1
aa(lp2235
I412
aI222
aI1
aa(lp2236
I358
aI222
aI1
aa(lp2237
I291
aI222
aI1
aa(lp2238
I161
aI222
aI1
aa(lp2239
I1171
aI221
aI1
aa(lp2240
I603
aI221
aI1
aa(lp2241
I588
aI221
aI1
aa(lp2242
I440
aI221
aI1
aa(lp2243
I376
aI221
aI1
aa(lp2244
I366
aI221
aI1
aa(lp2245
I343
aI221
aI1
aa(lp2246
I1246
aI220
aI1
aa(lp2247
I1242
aI220
aI1
aa(lp2248
I1241
aI220
aI1
aa(lp2249
I1239
aI220
aI1
aa(lp2250
I793
aI220
aI1
aa(lp2251
I753
aI220
aI1
aa(lp2252
I477
aI220
aI1
aa(lp2253
I472
aI220
aI1
aa(lp2254
I462
aI220
aI1
aa(lp2255
I377
aI220
aI1
aa(lp2256
I301
aI220
aI1
aa(lp2257
I964
aI219
aI1
aa(lp2258
I697
aI219
aI1
aa(lp2259
I462
aI219
aI1
aa(lp2260
I438
aI219
aI1
aa(lp2261
I279
aI219
aI1
aa(lp2262
I1114
aI218
aI1
aa(lp2263
I767
aI218
aI1
aa(lp2264
I654
aI218
aI1
aa(lp2265
I477
aI218
aI1
aa(lp2266
I462
aI218
aI1
aa(lp2267
I425
aI218
aI1
aa(lp2268
I279
aI218
aI1
aa(lp2269
I275
aI218
aI1
aa(lp2270
I273
aI218
aI1
aa(lp2271
I272
aI218
aI1
aa(lp2272
I270
aI218
aI1
aa(lp2273
I266
aI218
aI1
aa(lp2274
I262
aI218
aI1
aa(lp2275
I166
aI218
aI1
aa(lp2276
I1257
aI217
aI1
aa(lp2277
I1087
aI217
aI1
aa(lp2278
I743
aI217
aI1
aa(lp2279
I477
aI217
aI1
aa(lp2280
I379
aI217
aI1
aa(lp2281
I337
aI217
aI1
aa(lp2282
I258
aI217
aI1
aa(lp2283
I164
aI217
aI1
aa(lp2284
I1238
aI216
aI1
aa(lp2285
I740
aI216
aI1
aa(lp2286
I580
aI216
aI1
aa(lp2287
I481
aI216
aI1
aa(lp2288
I477
aI216
aI1
aa(lp2289
I462
aI216
aI1
aa(lp2290
I452
aI216
aI1
aa(lp2291
I421
aI216
aI1
aa(lp2292
I411
aI216
aI1
aa(lp2293
I274
aI216
aI1
aa(lp2294
I237
aI216
aI1
aa(lp2295
I1260
aI215
aI1
aa(lp2296
I1178
aI215
aI1
aa(lp2297
I889
aI215
aI1
aa(lp2298
I740
aI215
aI1
aa(lp2299
I421
aI215
aI1
aa(lp2300
I420
aI215
aI1
aa(lp2301
I382
aI215
aI1
aa(lp2302
I253
aI215
aI1
aa(lp2303
I141
aI215
aI1
aa(lp2304
I1125
aI214
aI1
aa(lp2305
I1049
aI214
aI1
aa(lp2306
I1006
aI214
aI1
aa(lp2307
I648
aI214
aI1
aa(lp2308
I478
aI214
aI1
aa(lp2309
I420
aI214
aI1
aa(lp2310
I416
aI214
aI1
aa(lp2311
I389
aI214
aI1
aa(lp2312
I254
aI214
aI1
aa(lp2313
I1237
aI213
aI1
aa(lp2314
I737
aI213
aI1
aa(lp2315
I655
aI213
aI1
aa(lp2316
I478
aI213
aI1
aa(lp2317
I461
aI213
aI1
aa(lp2318
I400
aI213
aI1
aa(lp2319
I369
aI213
aI1
aa(lp2320
I166
aI213
aI1
aa(lp2321
I812
aI212
aI1
aa(lp2322
I786
aI212
aI1
aa(lp2323
I733
aI212
aI1
aa(lp2324
I489
aI212
aI1
aa(lp2325
I480
aI212
aI1
aa(lp2326
I473
aI212
aI1
aa(lp2327
I432
aI212
aI1
aa(lp2328
I248
aI212
aI1
aa(lp2329
I167
aI212
aI1
aa(lp2330
I722
aI211
aI1
aa(lp2331
I518
aI211
aI1
aa(lp2332
I487
aI211
aI1
aa(lp2333
I484
aI211
aI1
aa(lp2334
I481
aI211
aI1
aa(lp2335
I474
aI211
aI1
aa(lp2336
I245
aI211
aI1
aa(lp2337
I662
aI210
aI1
aa(lp2338
I619
aI210
aI1
aa(lp2339
I481
aI210
aI1
aa(lp2340
I476
aI210
aI1
aa(lp2341
I474
aI210
aI1
aa(lp2342
I456
aI210
aI1
aa(lp2343
I387
aI210
aI1
aa(lp2344
I372
aI210
aI1
aa(lp2345
I1265
aI209
aI1
aa(lp2346
I663
aI209
aI1
aa(lp2347
I562
aI209
aI1
aa(lp2348
I481
aI209
aI1
aa(lp2349
I475
aI209
aI1
aa(lp2350
I464
aI209
aI1
aa(lp2351
I424
aI209
aI1
aa(lp2352
I376
aI209
aI1
aa(lp2353
I243
aI209
aI1
aa(lp2354
I241
aI209
aI1
aa(lp2355
I168
aI209
aI1
aa(lp2356
I1237
aI208
aI1
aa(lp2357
I940
aI208
aI1
aa(lp2358
I848
aI208
aI1
aa(lp2359
I786
aI208
aI1
aa(lp2360
I681
aI208
aI1
aa(lp2361
I478
aI208
aI1
aa(lp2362
I474
aI208
aI1
aa(lp2363
I462
aI208
aI1
aa(lp2364
I380
aI208
aI1
aa(lp2365
I170
aI208
aI1
aa(lp2366
I789
aI207
aI1
aa(lp2367
I674
aI207
aI1
aa(lp2368
I670
aI207
aI1
aa(lp2369
I437
aI207
aI1
aa(lp2370
I389
aI207
aI1
aa(lp2371
I386
aI207
aI1
aa(lp2372
I383
aI207
aI1
aa(lp2373
I229
aI207
aI1
aa(lp2374
I193
aI207
aI1
aa(lp2375
I184
aI207
aI1
aa(lp2376
I176
aI207
aI1
aa(lp2377
I168
aI207
aI1
aa(lp2378
I1143
aI206
aI1
aa(lp2379
I1142
aI206
aI1
aa(lp2380
I1141
aI206
aI1
aa(lp2381
I479
aI206
aI1
aa(lp2382
I470
aI206
aI1
aa(lp2383
I447
aI206
aI1
aa(lp2384
I409
aI206
aI1
aa(lp2385
I404
aI206
aI1
aa(lp2386
I399
aI206
aI1
aa(lp2387
I395
aI206
aI1
aa(lp2388
I393
aI206
aI1
aa(lp2389
I391
aI206
aI1
aa(lp2390
I375
aI206
aI1
aa(lp2391
I1144
aI205
aI1
aa(lp2392
I527
aI205
aI1
aa(lp2393
I472
aI205
aI1
aa(lp2394
I468
aI205
aI1
aa(lp2395
I437
aI205
aI1
aa(lp2396
I429
aI205
aI1
aa(lp2397
I422
aI205
aI1
aa(lp2398
I420
aI205
aI1
aa(lp2399
I417
aI205
aI1
aa(lp2400
I414
aI205
aI1
aa(lp2401
I393
aI205
aI1
aa(lp2402
I198
aI205
aI1
aa(lp2403
I1150
aI204
aI1
aa(lp2404
I1149
aI204
aI1
aa(lp2405
I784
aI204
aI1
aa(lp2406
I476
aI204
aI1
aa(lp2407
I474
aI204
aI1
aa(lp2408
I427
aI204
aI1
aa(lp2409
I425
aI204
aI1
aa(lp2410
I396
aI204
aI1
aa(lp2411
I202
aI204
aI1
aa(lp2412
I1162
aI203
aI1
aa(lp2413
I1156
aI203
aI1
aa(lp2414
I1153
aI203
aI1
aa(lp2415
I1152
aI203
aI1
aa(lp2416
I1151
aI203
aI1
aa(lp2417
I628
aI203
aI1
aa(lp2418
I477
aI203
aI1
aa(lp2419
I436
aI203
aI1
aa(lp2420
I434
aI203
aI1
aa(lp2421
I431
aI203
aI1
aa(lp2422
I278
aI203
aI1
aa(lp2423
I1237
aI202
aI1
aa(lp2424
I1181
aI202
aI1
aa(lp2425
I1175
aI202
aI1
aa(lp2426
I475
aI202
aI1
aa(lp2427
I439
aI202
aI1
aa(lp2428
I397
aI202
aI1
aa(lp2429
I809
aI201
aI1
aa(lp2430
I695
aI201
aI1
aa(lp2431
I621
aI201
aI1
aa(lp2432
I475
aI201
aI1
aa(lp2433
I474
aI201
aI1
aa(lp2434
I206
aI201
aI1
aa(lp2435
I176
aI201
aI1
aa(lp2436
I974
aI200
aI1
aa(lp2437
I625
aI200
aI1
aa(lp2438
I572
aI200
aI1
aa(lp2439
I442
aI200
aI1
aa(lp2440
I400
aI200
aI1
aa(lp2441
I222
aI200
aI1
aa(lp2442
I211
aI200
aI1
aa(lp2443
I169
aI200
aI1
aa(lp2444
I1271
aI199
aI1
aa(lp2445
I1196
aI199
aI1
aa(lp2446
I477
aI199
aI1
aa(lp2447
I455
aI199
aI1
aa(lp2448
I403
aI199
aI1
aa(lp2449
I212
aI199
aI1
aa(lp2450
I142
aI199
aI1
aa(lp2451
I1237
aI198
aI1
aa(lp2452
I876
aI198
aI1
aa(lp2453
I353
aI198
aI1
aa(lp2454
I213
aI198
aI1
aa(lp2455
I1210
aI197
aI1
aa(lp2456
I440
aI197
aI1
aa(lp2457
I406
aI197
aI1
aa(lp2458
I217
aI197
aI1
aa(lp2459
I215
aI197
aI1
aa(lp2460
I562
aI196
aI1
aa(lp2461
I435
aI196
aI1
aa(lp2462
I431
aI196
aI1
aa(lp2463
I428
aI196
aI1
aa(lp2464
I426
aI196
aI1
aa(lp2465
I424
aI196
aI1
aa(lp2466
I423
aI196
aI1
aa(lp2467
I421
aI196
aI1
aa(lp2468
I419
aI196
aI1
aa(lp2469
I418
aI196
aI1
aa(lp2470
I416
aI196
aI1
aa(lp2471
I414
aI196
aI1
aa(lp2472
I413
aI196
aI1
aa(lp2473
I411
aI196
aI1
aa(lp2474
I409
aI196
aI1
aa(lp2475
I408
aI196
aI1
aa(lp2476
I171
aI196
aI1
aa(lp2477
I1116
aI194
aI1
aa(lp2478
I668
aI194
aI1
aa(lp2479
I387
aI194
aI1
aa(lp2480
I1237
aI193
aI1
aa(lp2481
I1119
aI193
aI1
aa(lp2482
I1115
aI193
aI1
aa(lp2483
I189
aI193
aI1
aa(lp2484
I1220
aI192
aI1
aa(lp2485
I1187
aI192
aI1
aa(lp2486
I1127
aI192
aI1
aa(lp2487
I1122
aI192
aI1
aa(lp2488
I1023
aI192
aI1
aa(lp2489
I836
aI192
aI1
aa(lp2490
I654
aI192
aI1
aa(lp2491
I487
aI192
aI1
aa(lp2492
I172
aI192
aI1
aa(lp2493
I1134
aI191
aI1
aa(lp2494
I1132
aI191
aI1
aa(lp2495
I1129
aI191
aI1
aa(lp2496
I483
aI191
aI1
aa(lp2497
I1136
aI190
aI1
aa(lp2498
I483
aI190
aI1
aa(lp2499
I142
aI190
aI1
aa(lp2500
I1231
aI189
aI1
aa(lp2501
I1139
aI189
aI1
aa(lp2502
I1137
aI189
aI1
aa(lp2503
I1123
aI189
aI1
aa(lp2504
I803
aI189
aI1
aa(lp2505
I762
aI189
aI1
aa(lp2506
I721
aI189
aI1
aa(lp2507
I542
aI189
aI1
aa(lp2508
I225
aI189
aI1
aa(lp2509
I220
aI189
aI1
aa(lp2510
I214
aI189
aI1
aa(lp2511
I206
aI189
aI1
aa(lp2512
I200
aI189
aI1
aa(lp2513
I1238
aI188
aI1
aa(lp2514
I1145
aI188
aI1
aa(lp2515
I1142
aI188
aI1
aa(lp2516
I899
aI188
aI1
aa(lp2517
I727
aI188
aI1
aa(lp2518
I484
aI188
aI1
aa(lp2519
I329
aI188
aI1
aa(lp2520
I229
aI188
aI1
aa(lp2521
I204
aI188
aI1
aa(lp2522
I566
aI187
aI1
aa(lp2523
I282
aI187
aI1
aa(lp2524
I262
aI187
aI1
aa(lp2525
I246
aI187
aI1
aa(lp2526
I238
aI187
aI1
aa(lp2527
I233
aI187
aI1
aa(lp2528
I196
aI187
aI1
aa(lp2529
I175
aI187
aI1
aa(lp2530
I1239
aI186
aI1
aa(lp2531
I1149
aI186
aI1
aa(lp2532
I485
aI186
aI1
aa(lp2533
I194
aI186
aI1
aa(lp2534
I1239
aI185
aI1
aa(lp2535
I1238
aI185
aI1
aa(lp2536
I1153
aI185
aI1
aa(lp2537
I1128
aI185
aI1
aa(lp2538
I1044
aI185
aI1
aa(lp2539
I567
aI185
aI1
aa(lp2540
I297
aI185
aI1
aa(lp2541
I1239
aI184
aI1
aa(lp2542
I1187
aI184
aI1
aa(lp2543
I373
aI184
aI1
aa(lp2544
I192
aI184
aI1
aa(lp2545
I191
aI184
aI1
aa(lp2546
I144
aI184
aI1
aa(lp2547
I644
aI183
aI1
aa(lp2548
I486
aI183
aI1
aa(lp2549
I318
aI183
aI1
aa(lp2550
I190
aI183
aI1
aa(lp2551
I676
aI182
aI1
aa(lp2552
I348
aI182
aI1
aa(lp2553
I285
aI182
aI1
aa(lp2554
I188
aI182
aI1
aa(lp2555
I820
aI181
aI1
aa(lp2556
I799
aI181
aI1
aa(lp2557
I487
aI181
aI1
aa(lp2558
I176
aI181
aI1
aa(lp2559
I1158
aI180
aI1
aa(lp2560
I1157
aI180
aI1
aa(lp2561
I371
aI180
aI1
aa(lp2562
I213
aI180
aI1
aa(lp2563
I186
aI180
aI1
aa(lp2564
I178
aI180
aI1
aa(lp2565
I1187
aI179
aI1
aa(lp2566
I553
aI179
aI1
aa(lp2567
I489
aI179
aI1
aa(lp2568
I184
aI179
aI1
aa(lp2569
I178
aI179
aI1
aa(lp2570
I1161
aI178
aI1
aa(lp2571
I1132
aI178
aI1
aa(lp2572
I765
aI178
aI1
aa(lp2573
I631
aI178
aI1
aa(lp2574
I182
aI178
aI1
aa(lp2575
I178
aI178
aI1
aa(lp2576
I490
aI177
aI1
aa(lp2577
I256
aI177
aI1
aa(lp2578
I240
aI177
aI1
aa(lp2579
I181
aI177
aI1
aa(lp2580
I180
aI177
aI1
aa(lp2581
I179
aI177
aI1
aa(lp2582
I1277
aI176
aI1
aa(lp2583
I791
aI176
aI1
aa(lp2584
I571
aI176
aI1
aa(lp2585
I367
aI176
aI1
aa(lp2586
I1187
aI175
aI1
aa(lp2587
I685
aI175
aI1
aa(lp2588
I493
aI175
aI1
aa(lp2589
I492
aI175
aI1
aa(lp2590
I984
aI174
aI1
aa(lp2591
I620
aI174
aI1
aa(lp2592
I495
aI174
aI1
aa(lp2593
I494
aI174
aI1
aa(lp2594
I432
aI174
aI1
aa(lp2595
I222
aI174
aI1
aa(lp2596
I147
aI174
aI1
aa(lp2597
I1167
aI173
aI1
aa(lp2598
I1061
aI173
aI1
aa(lp2599
I1136
aI172
aI1
aa(lp2600
I789
aI172
aI1
aa(lp2601
I757
aI172
aI1
aa(lp2602
I610
aI172
aI1
aa(lp2603
I594
aI172
aI1
aa(lp2604
I499
aI172
aI1
aa(lp2605
I497
aI172
aI1
aa(lp2606
I201
aI172
aI1
aa(lp2607
I776
aI171
aI1
aa(lp2608
I398
aI171
aI1
aa(lp2609
I392
aI171
aI1
aa(lp2610
I562
aI170
aI1
aa(lp2611
I272
aI170
aI1
aa(lp2612
I165
aI170
aI1
aa(lp2613
I1139
aI169
aI1
aa(lp2614
I347
aI169
aI1
aa(lp2615
I124
aI169
aI1
aa(lp2616
I1181
aI168
aI1
aa(lp2617
I1178
aI168
aI1
aa(lp2618
I693
aI168
aI1
aa(lp2619
I503
aI168
aI1
aa(lp2620
I99
aI167
aI1
aa(lp2621
I765
aI166
aI1
aa(lp2622
I612
aI166
aI1
aa(lp2623
I1143
aI165
aI1
aa(lp2624
I1142
aI165
aI1
aa(lp2625
I408
aI165
aI1
aa(lp2626
I66
aI165
aI1
aa(lp2627
I509
aI164
aI1
aa(lp2628
I228
aI164
aI1
aa(lp2629
I49
aI164
aI1
aa(lp2630
I416
aI162
aI1
aa(lp2631
I307
aI162
aI1
aa(lp2632
I38
aI162
aI1
aa(lp2633
I1106
aI161
aI1
aa(lp2634
I758
aI161
aI1
aa(lp2635
I496
aI161
aI1
aa(lp2636
I1191
aI160
aI1
aa(lp2637
I701
aI160
aI1
aa(lp2638
I425
aI160
aI1
aa(lp2639
I284
aI160
aI1
aa(lp2640
I150
aI160
aI1
aa(lp2641
I951
aI158
aI1
aa(lp2642
I1058
aI157
aI1
aa(lp2643
I433
aI157
aI1
aa(lp2644
I893
aI156
aI1
aa(lp2645
I751
aI156
aI1
aa(lp2646
I709
aI156
aI1
aa(lp2647
I23
aI156
aI1
aa(lp2648
I515
aI155
aI1
aa(lp2649
I440
aI155
aI1
aa(lp2650
I286
aI155
aI1
aa(lp2651
I1284
aI154
aI1
aa(lp2652
I763
aI154
aI1
aa(lp2653
I233
aI154
aI1
aa(lp2654
I214
aI154
aI1
aa(lp2655
I23
aI154
aI1
aa(lp2656
I22
aI154
aI1
aa(lp2657
I742
aI153
aI1
aa(lp2658
I728
aI153
aI1
aa(lp2659
I717
aI153
aI1
aa(lp2660
I22
aI153
aI1
aa(lp2661
I588
aI152
aI1
aa(lp2662
I560
aI152
aI1
aa(lp2663
I1169
aI151
aI1
aa(lp2664
I22
aI151
aI1
aa(lp2665
I1088
aI150
aI1
aa(lp2666
I921
aI150
aI1
aa(lp2667
I256
aI150
aI1
aa(lp2668
I215
aI150
aI1
aa(lp2669
I21
aI150
aI1
aa(lp2670
I21
aI149
aI1
aa(lp2671
I20
aI148
aI1
aa(lp2672
I790
aI147
aI1
aa(lp2673
I444
aI147
aI1
aa(lp2674
I443
aI147
aI1
aa(lp2675
I1202
aI146
aI1
aa(lp2676
I668
aI146
aI1
aa(lp2677
I449
aI146
aI1
aa(lp2678
I447
aI146
aI1
aa(lp2679
I238
aI146
aI1
aa(lp2680
I19
aI146
aI1
aa(lp2681
I458
aI145
aI1
aa(lp2682
I152
aI145
aI1
aa(lp2683
I18
aI145
aI1
aa(lp2684
I485
aI144
aI1
aa(lp2685
I17
aI144
aI1
aa(lp2686
I772
aI143
aI1
aa(lp2687
I642
aI143
aI1
aa(lp2688
I561
aI143
aI1
aa(lp2689
I16
aI143
aI1
aa(lp2690
I520
aI142
aI1
aa(lp2691
I356
aI142
aI1
aa(lp2692
I228
aI141
aI1
aa(lp2693
I14
aI141
aI1
aa(lp2694
I733
aI140
aI1
aa(lp2695
I272
aI140
aI1
aa(lp2696
I247
aI140
aI1
aa(lp2697
I555
aI139
aI1
aa(lp2698
I470
aI139
aI1
aa(lp2699
I262
aI139
aI1
aa(lp2700
I260
aI139
aI1
aa(lp2701
I254
aI139
aI1
aa(lp2702
I153
aI139
aI1
aa(lp2703
I127
aI137
aI1
aa(lp2704
I14
aI137
aI1
aa(lp2705
I1289
aI136
aI1
aa(lp2706
I1104
aI136
aI1
aa(lp2707
I586
aI136
aI1
aa(lp2708
I155
aI136
aI1
aa(lp2709
I552
aI135
aI1
aa(lp2710
I524
aI135
aI1
aa(lp2711
I1040
aI134
aI1
aa(lp2712
I748
aI134
aI1
aa(lp2713
I155
aI134
aI1
aa(lp2714
I14
aI134
aI1
aa(lp2715
I198
aI133
aI1
aa(lp2716
I156
aI133
aI1
aa(lp2717
I551
aI132
aI1
aa(lp2718
I641
aI131
aI1
aa(lp2719
I554
aI131
aI1
aa(lp2720
I549
aI131
aI1
aa(lp2721
I528
aI131
aI1
aa(lp2722
I355
aI131
aI1
aa(lp2723
I216
aI131
aI1
aa(lp2724
I548
aI130
aI1
aa(lp2725
I547
aI130
aI1
aa(lp2726
I158
aI130
aI1
aa(lp2727
I530
aI129
aI1
aa(lp2728
I545
aI128
aI1
aa(lp2729
I543
aI128
aI1
aa(lp2730
I542
aI128
aI1
aa(lp2731
I540
aI128
aI1
aa(lp2732
I538
aI128
aI1
aa(lp2733
I535
aI128
aI1
aa(lp2734
I533
aI128
aI1
aa(lp2735
I244
aI127
aI1
aa(lp2736
I159
aI127
aI1
aa(lp2737
I525
aI126
aI1
aa(lp2738
I504
aI126
aI1
aa(lp2739
I14
aI125
aI1
aa(lp2740
I281
aI124
aI1
aa(lp2741
I210
aI124
aI1
aa(lp2742
I33
aI124
aI1
aa(lp2743
I1115
aI123
aI1
aa(lp2744
I401
aI123
aI1
aa(lp2745
I207
aI123
aI1
aa(lp2746
I1136
aI122
aI1
aa(lp2747
I160
aI122
aI1
aa(lp2748
I1210
aI121
aI1
aa(lp2749
I876
aI120
aI1
aa(lp2750
I1295
aI119
aI1
aa(lp2751
I198
aI119
aI1
aa(lp2752
I459
aI117
aI1
aa(lp2753
I190
aI117
aI1
aa(lp2754
I170
aI117
aI1
aa(lp2755
I563
aI116
aI1
aa(lp2756
I848
aI115
aI1
aa(lp2757
I178
aI115
aI1
aa(lp2758
I47
aI114
aI1
aa(lp2759
I1092
aI113
aI1
aa(lp2760
I169
aI113
aI1
aa(lp2761
I1016
aI112
aI1
aa(lp2762
I14
aI112
aI1
aa(lp2763
I164
aI111
aI1
aa(lp2764
I162
aI111
aI1
aa(lp2765
I161
aI111
aI1
aa(lp2766
I727
aI107
aI1
aa(lp2767
I296
aI106
aI1
aa(lp2768
I1217
aI105
aI1
aa(lp2769
I1155
aI105
aI1
aa(lp2770
I1126
aI105
aI1
aa(lp2771
I1155
aI104
aI1
aa(lp2772
I630
aI104
aI1
aa(lp2773
I1158
aI103
aI1
aa(lp2774
I1151
aI103
aI1
aa(lp2775
I1139
aI100
aI1
aa(lp2776
I228
aI100
aI1
aa(lp2777
I1132
aI98
aI1
aa(lp2778
I1080
aI98
aI1
aa(lp2779
I530
aI98
aI1
aa(lp2780
I298
aI98
aI1
aa(lp2781
I535
aI97
aI1
aa(lp2782
I1225
aI96
aI1
aa(lp2783
I1111
aI96
aI1
aa(lp2784
I469
aI96
aI1
aa(lp2785
I927
aI95
aI1
aa(lp2786
I13
aI95
aI1
aa(lp2787
I1096
aI93
aI1
aa(lp2788
I1068
aI93
aI1
aa(lp2789
I1026
aI93
aI1
aa(lp2790
I996
aI93
aI1
aa(lp2791
I760
aI91
aI1
aa(lp2792
I596
aI90
aI1
aa(lp2793
I523
aI90
aI1
aa(lp2794
I132
aI90
aI1
aa(lp2795
I436
aI89
aI1
aa(lp2796
I375
aI88
aI1
aa(lp2797
I1175
aI85
aI1
aa(lp2798
I1172
aI85
aI1
aa(lp2799
I712
aI84
aI1
aa(lp2800
I1302
aI83
aI1
aa(lp2801
I1238
aI83
aI1
aa(lp2802
I1139
aI82
aI1
aa(lp2803
I1189
aI81
aI1
aa(lp2804
I844
aI80
aI1
aa(lp2805
I1196
aI78
aI1
aa(lp2806
I1195
aI78
aI1
aa(lp2807
I1194
aI78
aI1
aa(lp2808
I1193
aI78
aI1
aa(lp2809
I1189
aI78
aI1
aa(lp2810
I273
aI78
aI1
aa(lp2811
I1185
aI77
aI1
aa(lp2812
I1183
aI77
aI1
aa(lp2813
I11
aI77
aI1
aa(lp2814
I1147
aI76
aI1
aa(lp2815
I489
aI76
aI1
aa(lp2816
I1179
aI75
aI1
aa(lp2817
I1177
aI75
aI1
aa(lp2818
I1170
aI75
aI1
aa(lp2819
I208
aI75
aI1
aa(lp2820
I1162
aI74
aI1
aa(lp2821
I1158
aI74
aI1
aa(lp2822
I1154
aI74
aI1
aa(lp2823
I1152
aI74
aI1
aa(lp2824
I1151
aI74
aI1
aa(lp2825
I1149
aI74
aI1
aa(lp2826
I1148
aI74
aI1
aa(lp2827
I427
aI73
aI1
aa(lp2828
I425
aI73
aI1
aa(lp2829
I147
aI72
aI1
aa(lp2830
I103
aI72
aI1
aa(lp2831
I1249
aI70
aI1
aa(lp2832
I573
aI70
aI1
aa(lp2833
I336
aI69
aI1
aa(lp2834
I0
aI68
aI1
aa(lp2835
I697
aI67
aI1
aa(lp2836
I406
aI67
aI1
aa(lp2837
I110
aI67
aI1
aa(lp2838
I238
aI66
aI1
aa(lp2839
I1316
aI63
aI1
aa(lp2840
I820
aI63
aI1
aa(lp2841
I187
aI63
aI1
aa(lp2842
I1255
aI62
aI1
aa(lp2843
I1259
aI59
aI1
aa(lp2844
I219
aI59
aI1
aa(lp2845
I1260
aI58
aI1
aa(lp2846
I460
aI58
aI1
aa(lp2847
I1263
aI56
aI1
aa(lp2848
I0
aI56
aI1
aa(lp2849
I1011
aI55
aI1
aa(lp2850
I405
aI55
aI1
aa(lp2851
I1210
aI54
aI1
aa(lp2852
I673
aI54
aI1
aa(lp2853
I81
aI54
aI1
aa(lp2854
I795
aI53
aI1
aa(lp2855
I366
aI53
aI1
aa(lp2856
I10
aI53
aI1
aa(lp2857
I1073
aI52
aI1
aa(lp2858
I733
aI52
aI1
aa(lp2859
I676
aI52
aI1
aa(lp2860
I1268
aI51
aI1
aa(lp2861
I1333
aI50
aI1
aa(lp2862
I431
aI50
aI1
aa(lp2863
I389
aI50
aI1
aa(lp2864
I0
aI50
aI1
aa(lp2865
I82
aI48
aI1
aa(lp2866
I1279
aI46
aI1
aa(lp2867
I257
aI45
aI1
aa(lp2868
I223
aI45
aI1
aa(lp2869
I163
aI44
aI1
aa(lp2870
I55
aI44
aI1
aa(lp2871
I320
aI43
aI1
aa(lp2872
I197
aI43
aI1
aa(lp2873
I0
aI41
aI1
aa(lp2874
I627
aI39
aI1
aa(lp2875
I382
aI39
aI1
aa(lp2876
I190
aI39
aI1
aa(lp2877
I1343
aI38
aI1
aa(lp2878
I189
aI38
aI1
aa(lp2879
I1300
aI37
aI1
aa(lp2880
I187
aI37
aI1
aa(lp2881
I184
aI37
aI1
aa(lp2882
I180
aI36
aI1
aa(lp2883
I177
aI36
aI1
aa(lp2884
I175
aI35
aI1
aa(lp2885
I174
aI35
aI1
aa(lp2886
I54
aI34
aI1
aa(lp2887
I175
aI33
aI1
aa(lp2888
I173
aI33
aI1
aa(lp2889
I171
aI33
aI1
aa(lp2890
I170
aI32
aI1
aa(lp2891
I166
aI30
aI1
aa(lp2892
I40
aI30
aI1
aa(lp2893
I153
aI28
aI1
aa(lp2894
I719
aI27
aI1
aa(lp2895
I458
aI27
aI1
aa(lp2896
I154
aI27
aI1
aa(lp2897
I162
aI25
aI1
aa(lp2898
I147
aI25
aI1
aa(lp2899
I120
aI25
aI1
aa(lp2900
I468
aI24
aI1
aa(lp2901
I1317
aI23
aI1
aa(lp2902
I290
aI23
aI1
aa(lp2903
I156
aI23
aI1
aa(lp2904
I29
aI23
aI1
aa(lp2905
I150
aI22
aI1
aa(lp2906
I140
aI21
aI1
aa(lp2907
I5
aI21
aI1
aa(lp2908
I1352
aI20
aI1
aa(lp2909
I458
aI19
aI1
aa(lp2910
I586
aI18
aI1
aa(lp2911
I129
aI18
aI1
aa(lp2912
I116
aI17
aI1
aa(lp2913
I23
aI17
aI1
aa(lp2914
I107
aI15
aI1
aa(lp2915
I29
aI15
aI1
aa(lp2916
I104
aI12
aI1
aa(lp2917
I102
aI12
aI1
aa(lp2918
I1325
aI10
aI1
aa(lp2919
I503
aI10
aI1
aa(lp2920
I1357
aI8
aI1
aa(lp2921
I896
aI8
aI1
aa(lp2922
I1
aI8
aI1
aa(lp2923
I134
aI6
aI1
aa(lp2924
I1329
aI5
aI1
aa(lp2925
I15
aI5
aI1
aa(lp2926
I555
aI4
aI1
aa(lp2927
I3
aI4
aI1
aa(lp2928
I1360
aI3
aI1
aa(lp2929
I0
aI3
aI1
aa(lp2930
I1333
aI2
aI1
aa(lp2931
I533
aI2
aI1
aa(lp2932
I5
aI2
aI1
aa(lp2933
I1349
aI1
aI1
aa(lp2934
I1347
aI1
aI1
aa(lp2935
I1343
aI1
aI1
aa(lp2936
I1340
aI1
aI1
aa(lp2937
I1337
aI1
aI1
aa(lp2938
I1359
aI0
aI1
aa(lp2939
I1347
aI0
aI1
aa(lp2940
I1316
aI0
aI1
aa(lp2941
I1299
aI0
aI1
aa(lp2942
I1281
aI0
aI1
aa(lp2943
I1269
aI0
aI1
aa(lp2944
I1247
aI0
aI1
aa(lp2945
I1195
aI0
aI1
aa(lp2946
I1148
aI0
aI1
aa(lp2947
I1116
aI0
aI1
aa(lp2948
I763
aI0
aI1
aa(lp2949
I673
aI0
aI1
aa(lp2950
I646
aI0
aI1
aa(lp2951
I622
aI0
aI1
aa(lp2952
I621
aI0
aI1
aa(lp2953
I598
aI0
aI1
aa(lp2954
I568
aI0
aI1
aa(lp2955
I550
aI0
aI1
aa(lp2956
I545
aI0
aI1
aa(lp2957
I543
aI0
aI1
aa(lp2958
I542
aI0
aI1
aa(lp2959
I538
aI0
aI1
aa(lp2960
I518
aI0
aI1
aa(lp2961
I492
aI0
aI1
aa(lp2962
I472
aI0
aI1
aa(lp2963
I306
aI0
aI1
aa(lp2964
I207
aI0
aI1
aa(lp2965
I120
aI0
aI1
aa(lp2966
I84
aI0
aI1
aa(lp2967
I8
aI0
aI1
aa(lp2968
I5
aI0
aI1
aa.