(lp0
(lp1
I0
aI0
aI140
aa(lp2
I1365
aI0
aI13
aa(lp3
I233
aI520
aI8
aa(lp4
I1001
aI437
aI8
aa(lp5
I226
aI342
aI8
aa(lp6
I226
aI584
aI7
aa(lp7
I225
aI556
aI7
aa(lp8
I228
aI409
aI7
aa(lp9
I220
aI354
aI7
aa(lp10
I222
aI307
aI7
aa(lp11
I474
aI212
aI7
aa(lp12
I225
aI585
aI6
aa(lp13
I221
aI540
aI6
aa(lp14
I227
aI521
aI6
aa(lp15
I219
aI506
aI6
aa.