(lp0
(lp1
I0
aI0
aI94
aa(lp2
I1365
aI0
aI13
aa(lp3
I233
aI520
aI8
aa(lp4
I1001
aI437
aI8
aa(lp5
I226
aI342
aI8
aa(lp6
I226
aI584
aI7
aa(lp7
I225
aI556
aI7
aa(lp8
I228
aI409
aI7
aa(lp9
I220
aI354
aI7
aa(lp10
I222
aI307
aI7
aa(lp11
I474
aI212
aI7
aa(lp12
I225
aI585
aI6
aa(lp13
I221
aI540
aI6
aa(lp14
I227
aI521
aI6
aa(lp15
I219
aI506
aI6
aa(lp16
I220
aI447
aI6
aa(lp17
I219
aI381
aI6
aa(lp18
I221
aI380
aI6
aa(lp19
I863
aI624
aI5
aa(lp20
I226
aI548
aI5
aa(lp21
I237
aI522
aI5
aa(lp22
I227
aI520
aI5
aa(lp23
I218
aI450
aI5
aa(lp24
I415
aI367
aI5
aa(lp25
I220
aI355
aI5
aa(lp26
I468
aI336
aI5
aa(lp27
I590
aI321
aI5
aa(lp28
I282
aI275
aI5
aa(lp29
I743
aI259
aI5
aa(lp30
I474
aI200
aI5
aa(lp31
I220
aI589
aI4
aa(lp32
I234
aI587
aI4
aa(lp33
I225
aI555
aI4
aa(lp34
I232
aI522
aI4
aa(lp35
I219
aI509
aI4
aa(lp36
I218
aI506
aI4
aa(lp37
I233
aI503
aI4
aa(lp38
I232
aI503
aI4
aa(lp39
I217
aI484
aI4
aa(lp40
I219
aI483
aI4
aa(lp41
I226
aI451
aI4
aa(lp42
I999
aI437
aI4
aa(lp43
I227
aI406
aI4
aa(lp44
I226
aI403
aI4
aa(lp45
I218
aI381
aI4
aa(lp46
I216
aI381
aI4
aa(lp47
I220
aI380
aI4
aa(lp48
I219
aI380
aI4
aa(lp49
I691
aI377
aI4
aa(lp50
I222
aI371
aI4
aa(lp51
I220
aI353
aI4
aa(lp52
I227
aI347
aI4
aa(lp53
I225
aI343
aI4
aa(lp54
I591
aI321
aI4
aa(lp55
I656
aI312
aI4
aa(lp56
I221
aI299
aI4
aa(lp57
I478
aI226
aI4
aa(lp58
I675
aI224
aI4
aa(lp59
I1138
aI207
aI4
aa(lp60
I1114
aI195
aI4
aa(lp61
I1114
aI194
aI4
aa(lp62
I160
aI111
aI4
aa(lp63
I160
aI110
aI4
aa(lp64
I192
aI39
aI4
aa(lp65
I191
aI39
aI4
aa(lp66
I234
aI591
aI3
aa(lp67
I221
aI588
aI3
aa(lp68
I233
aI586
aI3
aa(lp69
I226
aI585
aI3
aa(lp70
I221
aI585
aI3
aa(lp71
I220
aI579
aI3
aa(lp72
I220
aI576
aI3
aa(lp73
I872
aI565
aI3
aa(lp74
I223
aI558
aI3
aa(lp75
I225
aI557
aI3
aa(lp76
I225
aI548
aI3
aa(lp77
I227
aI547
aI3
aa(lp78
I232
aI543
aI3
aa(lp79
I230
aI535
aI3
aa(lp80
I227
aI528
aI3
aa(lp81
I217
aI504
aI3
aa(lp82
I231
aI502
aI3
aa(lp83
I231
aI501
aI3
aa(lp84
I217
aI487
aI3
aa(lp85
I217
aI486
aI3
aa(lp86
I227
aI472
aI3
aa(lp87
I219
aI466
aI3
aa(lp88
I217
aI450
aI3
aa(lp89
I217
aI446
aI3
aa(lp90
I227
aI445
aI3
aa(lp91
I227
aI442
aI3
aa(lp92
I220
aI442
aI3
aa(lp93
I994
aI441
aI3
aa(lp94
I606
aI416
aI3
aa(lp95
I228
aI410
aI3
aa(lp96
I219
aI405
aI3
aa(lp97
I226
aI404
aI3
aa(lp98
I224
aI402
aI3
aa(lp99
I225
aI401
aI3
aa(lp100
I219
aI401
aI3
aa(lp101
I710
aI397
aI3
aa(lp102
I189
aI397
aI3
aa(lp103
I217
aI381
aI3
aa(lp104
I223
aI380
aI3
aa(lp105
I222
aI380
aI3
aa(lp106
I481
aI379
aI3
aa(lp107
I225
aI368
aI3
aa(lp108
I222
aI363
aI3
aa(lp109
I227
aI348
aI3
aa(lp110
I227
aI345
aI3
aa(lp111
I226
aI341
aI3
aa(lp112
I225
aI341
aI3
aa(lp113
I225
aI324
aI3
aa(lp114
I484
aI319
aI3
aa(lp115
I457
aI311
aI3
aa(lp116
I222
aI306
aI3
aa(lp117
I221
aI303
aI3
aa(lp118
I62
aI284
aI3
aa(lp119
I79
aI277
aI3
aa(lp120
I338
aI271
aI3
aa(lp121
I593
aI269
aI3
aa(lp122
I850
aI266
aI3
aa(lp123
I966
aI258
aI3
aa(lp124
I966
aI257
aI3
aa(lp125
I792
aI242
aI3
aa(lp126
I362
aI231
aI3
aa(lp127
I443
aI229
aI3
aa(lp128
I675
aI223
aI3
aa(lp129
I1240
aI220
aI3
aa(lp130
I273
aI217
aI3
aa(lp131
I240
aI208
aI3
aa(lp132
I473
aI205
aI3
aa(lp133
I423
aI204
aI3
aa(lp134
I1150
aI203
aI3
aa(lp135
I440
aI201
aI3
aa(lp136
I215
aI196
aI3
aa(lp137
I215
aI195
aI3
aa(lp138
I1144
aI188
aI3
aa(lp139
I1144
aI187
aI3
aa(lp140
I1241
aI184
aI3
aa(lp141
I1157
aI181
aI3
aa(lp142
I1145
aI162
aI3
aa(lp143
I23
aI159
aI3
aa(lp144
I146
aI23
aI3
aa(lp145
I1363
aI1
aI3
aa(lp146
I864
aI623
aI2
aa(lp147
I863
aI623
aI2
aa(lp148
I233
aI591
aI2
aa(lp149
I224
aI591
aI2
aa(lp150
I234
aI590
aI2
aa(lp151
I222
aI590
aI2
aa(lp152
I234
aI586
aI2
aa(lp153
I224
aI585
aI2
aa(lp154
I222
aI585
aI2
aa(lp155
I221
aI584
aI2
aa(lp156
I220
aI582
aI2
aa(lp157
I220
aI581
aI2
aa(lp158
I220
aI580
aI2
aa(lp159
I220
aI578
aI2
aa(lp160
I220
aI577
aI2
aa(lp161
I221
aI567
aI2
aa(lp162
I700
aI560
aI2
aa(lp163
I224
aI556
aI2
aa(lp164
I224
aI555
aI2
aa(lp165
I225
aI554
aI2
aa(lp166
I225
aI553
aI2
aa(lp167
I225
aI549
aI2
aa(lp168
I227
aI548
aI2
aa(lp169
I224
aI548
aI2
aa(lp170
I228
aI546
aI2
aa(lp171
I230
aI545
aI2
aa(lp172
I231
aI544
aI2
aa(lp173
I221
aI537
aI2
aa(lp174
I231
aI536
aI2
aa(lp175
I221
aI535
aI2
aa(lp176
I221
aI534
aI2
aa(lp177
I230
aI533
aI2
aa(lp178
I221
aI533
aI2
aa(lp179
I228
aI530
aI2
aa(lp180
I228
aI529
aI2
aa(lp181
I233
aI522
aI2
aa(lp182
I227
aI522
aI2
aa(lp183
I219
aI510
aI2
aa(lp184
I218
aI507
aI2
aa(lp185
I219
aI505
aI2
aa(lp186
I218
aI505
aI2
aa(lp187
I219
aI504
aI2
aa(lp188
I217
aI503
aI2
aa(lp189
I231
aI500
aI2
aa(lp190
I217
aI500
aI2
aa(lp191
I230
aI499
aI2
aa(lp192
I217
aI499
aI2
aa(lp193
I217
aI498
aI2
aa(lp194
I230
aI497
aI2
aa(lp195
I217
aI497
aI2
aa(lp196
I219
aI482
aI2
aa(lp197
I228
aI480
aI2
aa(lp198
I216
aI479
aI2
aa(lp199
I216
aI478
aI2
aa(lp200
I225
aI474
aI2
aa(lp201
I216
aI474
aI2
aa(lp202
I225
aI473
aI2
aa(lp203
I216
aI473
aI2
aa(lp204
I217
aI470
aI2
aa(lp205
I226
aI467
aI2
aa(lp206
I225
aI461
aI2
aa(lp207
I224
aI457
aI2
aa(lp208
I221
aI448
aI2
aa(lp209
I217
aI448
aI2
aa(lp210
I221
aI447
aI2
aa(lp211
I217
aI445
aI2
aa(lp212
I219
aI442
aI2
aa(lp213
I220
aI441
aI2
aa(lp214
I998
aI440
aI2
aa(lp215
I227
aI440
aI2
aa(lp216
I220
aI440
aI2
aa(lp217
I1001
aI438
aI2
aa(lp218
I227
aI436
aI2
aa(lp219
I227
aI433
aI2
aa(lp220
I227
aI432
aI2
aa(lp221
I227
aI430
aI2
aa(lp222
I225
aI402
aI2
aa(lp223
I225
aI400
aI2
aa(lp224
I229
aI395
aI2
aa(lp225
I229
aI394
aI2
aa(lp226
I219
aI393
aI2
aa(lp227
I229
aI392
aI2
aa(lp228
I692
aI377
aI2
aa(lp229
I216
aI375
aI2
aa(lp230
I216
aI374
aI2
aa(lp231
I216
aI373
aI2
aa(lp232
I216
aI372
aI2
aa(lp233
I222
aI370
aI2
aa(lp234
I222
aI369
aI2
aa(lp235
I224
aI368
aI2
aa(lp236
I223
aI367
aI2
aa(lp237
I222
aI364
aI2
aa(lp238
I222
aI361
aI2
aa(lp239
I161
aI360
aI2
aa(lp240
I220
aI356
aI2
aa(lp241
I219
aI354
aI2
aa(lp242
I219
aI353
aI2
aa(lp243
I225
aI351
aI2
aa(lp244
I395
aI345
aI2
aa(lp245
I226
aI344
aI2
aa(lp246
I225
aI342
aI2
aa(lp247
I525
aI337
aI2
aa(lp248
I467
aI337
aI2
aa(lp249
I534
aI326
aI2
aa(lp250
I608
aI325
aI2
aa(lp251
I534
aI325
aI2
aa(lp252
I534
aI324
aI2
aa(lp253
I226
aI324
aI2
aa(lp254
I412
aI323
aI2
aa(lp255
I422
aI321
aI2
aa(lp256
I594
aI320
aI2
aa(lp257
I592
aI320
aI2
aa(lp258
I617
aI314
aI2
aa(lp259
I616
aI314
aI2
aa(lp260
I613
aI314
aI2
aa(lp261
I224
aI308
aI2
aa(lp262
I223
aI307
aI2
aa(lp263
I230
aI304
aI2
aa(lp264
I222
aI304
aI2
aa(lp265
I221
aI298
aI2
aa(lp266
I221
aI297
aI2
aa(lp267
I618
aI288
aI2
aa(lp268
I62
aI285
aI2
aa(lp269
I679
aI283
aI2
aa(lp270
I80
aI277
aI2
aa(lp271
I337
aI272
aI2
aa(lp272
I756
aI271
aI2
aa(lp273
I756
aI266
aI2
aa(lp274
I742
aI259
aI2
aa(lp275
I963
aI243
aI2
aa(lp276
I793
aI242
aI2
aa(lp277
I493
aI238
aI2
aa(lp278
I366
aI235
aI2
aa(lp279
I444
aI229
aI2
aa(lp280
I1244
aI220
aI2
aa(lp281
I1256
aI217
aI2
aa(lp282
I274
aI217
aI2
aa(lp283
I1258
aI216
aI2
aa(lp284
I487
aI212
aI2
aa(lp285
I488
aI211
aI2
aa(lp286
I240
aI209
aI2
aa(lp287
I1140
aI207
aI2
aa(lp288
I474
aI207
aI2
aa(lp289
I239
aI207
aI2
aa(lp290
I474
aI205
aI2
aa(lp291
I441
aI201
aI2
aa(lp292
I475
aI197
aI2
aa(lp293
I1237
aI195
aI2
aa(lp294
I1115
aI194
aI2
aa(lp295
I1116
aI193
aI2
aa(lp296
I483
aI192
aI2
aa(lp297
I482
aI192
aI2
aa(lp298
I1152
aI186
aI2
aa(lp299
I1151
aI186
aI2
aa(lp300
I1240
aI184
aI2
aa(lp301
I1140
aI167
aI2
aa(lp302
I1141
aI166
aI2
aa(lp303
I1144
aI164
aI2
aa(lp304
I1145
aI163
aI2
aa(lp305
I23
aI155
aI2
aa(lp306
I443
aI153
aI2
aa(lp307
I442
aI153
aI2
aa(lp308
I14
aI142
aI2
aa(lp309
I261
aI139
aI2
aa(lp310
I14
aI138
aI2
aa(lp311
I157
aI132
aI2
aa(lp312
I1147
aI75
aI2
aa(lp313
I1147
aI74
aI2
aa(lp314
I146
aI22
aI2
aa(lp315
I105
aI12
aI2
aa(lp316
I865
aI622
aI1
aa(lp317
I867
aI620
aI1
aa(lp318
I859
aI620
aI1
aa(lp319
I868
aI617
aI1
aa(lp320
I851
aI615
aI1
aa(lp321
I869
aI613
aI1
aa(lp322
I871
aI607
aI1
aa(lp323
I822
aI601
aI1
aa(lp324
I873
aI596
aI1
aa(lp325
I230
aI591
aI1
aa(lp326
I227
aI591
aI1
aa(lp327
I226
aI591
aI1
aa(lp328
I221
aI590
aI1
aa(lp329
I874
aI589
aI1
aa(lp330
I234
aI589
aI1
aa(lp331
I221
aI589
aI1
aa(lp332
I234
aI588
aI1
aa(lp333
I220
aI588
aI1
aa(lp334
I222
aI587
aI1
aa(lp335
I231
aI586
aI1
aa(lp336
I222
aI586
aI1
aa(lp337
I874
aI585
aI1
aa(lp338
I229
aI585
aI1
aa(lp339
I228
aI585
aI1
aa(lp340
I223
aI585
aI1
aa(lp341
I225
aI584
aI1
aa(lp342
I874
aI583
aI1
aa(lp343
I226
aI583
aI1
aa(lp344
I225
aI583
aI1
aa(lp345
I220
aI583
aI1
aa(lp346
I225
aI582
aI1
aa(lp347
I874
aI581
aI1
aa(lp348
I874
aI579
aI1
aa(lp349
I227
aI579
aI1
aa(lp350
I874
aI577
aI1
aa(lp351
I793
aI577
aI1
aa(lp352
I874
aI575
aI1
aa(lp353
I874
aI574
aI1
aa(lp354
I220
aI574
aI1
aa(lp355
I220
aI573
aI1
aa(lp356
I874
aI572
aI1
aa(lp357
I231
aI571
aI1
aa(lp358
I873
aI570
aI1
aa(lp359
I221
aI570
aI1
aa(lp360
I221
aI569
aI1
aa(lp361
I873
aI568
aI1
aa(lp362
I221
aI566
aI1
aa(lp363
I221
aI565
aI1
aa(lp364
I872
aI563
aI1
aa(lp365
I222
aI563
aI1
aa(lp366
I700
aI561
aI1
aa(lp367
I699
aI561
aI1
aa(lp368
I222
aI561
aI1
aa(lp369
I699
aI560
aI1
aa(lp370
I223
aI560
aI1
aa(lp371
I700
aI559
aI1
aa(lp372
I698
aI559
aI1
aa(lp373
I223
aI559
aI1
aa(lp374
I869
aI558
aI1
aa(lp375
I703
aI557
aI1
aa(lp376
I702
aI557
aI1
aa(lp377
I708
aI556
aI1
aa(lp378
I707
aI556
aI1
aa(lp379
I705
aI556
aI1
aa(lp380
I704
aI556
aI1
aa(lp381
I706
aI555
aI1
aa(lp382
I696
aI555
aI1
aa(lp383
I693
aI552
aI1
aa(lp384
I224
aI552
aI1
aa(lp385
I224
aI551
aI1
aa(lp386
I863
aI550
aI1
aa(lp387
I224
aI550
aI1
aa(lp388
I238
aI548
aI1
aa(lp389
I733
aI546
aI1
aa(lp390
I229
aI546
aI1
aa(lp391
I700
aI545
aI1
aa(lp392
I229
aI545
aI1
aa(lp393
I690
aI544
aI1
aa(lp394
I230
aI544
aI1
aa(lp395
I849
aI541
aI1
aa(lp396
I221
aI539
aI1
aa(lp397
I221
aI538
aI1
aa(lp398
I221
aI536
aI1
aa(lp399
I683
aI534
aI1
aa(lp400
I230
aI534
aI1
aa(lp401
I248
aI533
aI1
aa(lp402
I229
aI532
aI1
aa(lp403
I229
aI531
aI1
aa(lp404
I221
aI531
aI1
aa(lp405
I220
aI530
aI1
aa(lp406
I830
aI529
aI1
aa(lp407
I228
aI528
aI1
aa(lp408
I224
aI528
aI1
aa(lp409
I227
aI527
aI1
aa(lp410
I677
aI526
aI1
aa(lp411
I227
aI526
aI1
aa(lp412
I220
aI525
aI1
aa(lp413
I236
aI522
aI1
aa(lp414
I231
aI522
aI1
aa(lp415
I697
aI521
aI1
aa(lp416
I237
aI521
aI1
aa(lp417
I234
aI521
aI1
aa(lp418
I231
aI521
aI1
aa(lp419
I236
aI520
aI1
aa(lp420
I231
aI520
aI1
aa(lp421
I262
aI519
aI1
aa(lp422
I236
aI519
aI1
aa(lp423
I228
aI519
aI1
aa(lp424
I227
aI519
aI1
aa(lp425
I236
aI518
aI1
aa(lp426
I664
aI516
aI1
aa(lp427
I236
aI516
aI1
aa(lp428
I220
aI515
aI1
aa(lp429
I235
aI514
aI1
aa(lp430
I815
aI512
aI1
aa(lp431
I241
aI512
aI1
aa(lp432
I235
aI511
aI1
aa(lp433
I220
aI511
aI1
aa(lp434
I676
aI508
aI1
aa(lp435
I654
aI508
aI1
aa(lp436
I234
aI508
aI1
aa(lp437
I219
aI508
aI1
aa(lp438
I233
aI507
aI1
aa(lp439
I233
aI505
aI1
aa(lp440
I217
aI505
aI1
aa(lp441
I218
aI504
aI1
aa(lp442
I249
aI503
aI1
aa(lp443
I219
aI503
aI1
aa(lp444
I219
aI502
aI1
aa(lp445
I218
aI502
aI1
aa(lp446
I217
aI502
aI1
aa(lp447
I218
aI501
aI1
aa(lp448
I218
aI499
aI1
aa(lp449
I230
aI498
aI1
aa(lp450
I218
aI498
aI1
aa(lp451
I643
aI497
aI1
aa(lp452
I230
aI496
aI1
aa(lp453
I218
aI496
aI1
aa(lp454
I220
aI495
aI1
aa(lp455
I218
aI495
aI1
aa(lp456
I217
aI495
aI1
aa(lp457
I229
aI494
aI1
aa(lp458
I217
aI493
aI1
aa(lp459
I229
aI492
aI1
aa(lp460
I218
aI492
aI1
aa(lp461
I217
aI492
aI1
aa(lp462
I217
aI491
aI1
aa(lp463
I229
aI490
aI1
aa(lp464
I218
aI490
aI1
aa(lp465
I217
aI489
aI1
aa(lp466
I229
aI488
aI1
aa(lp467
I217
aI488
aI1
aa(lp468
I255
aI486
aI1
aa(lp469
I228
aI486
aI1
aa(lp470
I217
aI485
aI1
aa(lp471
I546
aI484
aI1
aa(lp472
I545
aI484
aI1
aa(lp473
I228
aI484
aI1
aa(lp474
I802
aI483
aI1
aa(lp475
I544
aI483
aI1
aa(lp476
I276
aI483
aI1
aa(lp477
I228
aI483
aI1
aa(lp478
I651
aI482
aI1
aa(lp479
I228
aI482
aI1
aa(lp480
I218
aI482
aI1
aa(lp481
I228
aI481
aI1
aa(lp482
I223
aI481
aI1
aa(lp483
I219
aI481
aI1
aa(lp484
I633
aI480
aI1
aa(lp485
I219
aI480
aI1
aa(lp486
I218
aI480
aI1
aa(lp487
I228
aI479
aI1
aa(lp488
I219
aI479
aI1
aa(lp489
I218
aI479
aI1
aa(lp490
I217
aI479
aI1
aa(lp491
I548
aI478
aI1
aa(lp492
I228
aI478
aI1
aa(lp493
I219
aI478
aI1
aa(lp494
I544
aI477
aI1
aa(lp495
I228
aI477
aI1
aa(lp496
I225
aI477
aI1
aa(lp497
I216
aI477
aI1
aa(lp498
I549
aI476
aI1
aa(lp499
I225
aI476
aI1
aa(lp500
I216
aI476
aI1
aa(lp501
I228
aI475
aI1
aa(lp502
I219
aI475
aI1
aa(lp503
I216
aI475
aI1
aa(lp504
I551
aI474
aI1
aa(lp505
I228
aI474
aI1
aa(lp506
I633
aI472
aI1
aa(lp507
I226
aI472
aI1
aa(lp508
I225
aI472
aI1
aa(lp509
I219
aI472
aI1
aa(lp510
I217
aI472
aI1
aa(lp511
I216
aI472
aI1
aa(lp512
I554
aI471
aI1
aa(lp513
I227
aI471
aI1
aa(lp514
I226
aI471
aI1
aa(lp515
I217
aI471
aI1
aa(lp516
I219
aI470
aI1
aa(lp517
I542
aI469
aI1
aa(lp518
I261
aI469
aI1
aa(lp519
I218
aI469
aI1
aa(lp520
I217
aI469
aI1
aa(lp521
I219
aI468
aI1
aa(lp522
I218
aI468
aI1
aa(lp523
I226
aI466
aI1
aa(lp524
I790
aI465
aI1
aa(lp525
I220
aI465
aI1
aa(lp526
I219
aI465
aI1
aa(lp527
I558
aI464
aI1
aa(lp528
I225
aI464
aI1
aa(lp529
I220
aI464
aI1
aa(lp530
I219
aI464
aI1
aa(lp531
I222
aI463
aI1
aa(lp532
I219
aI462
aI1
aa(lp533
I222
aI461
aI1
aa(lp534
I623
aI460
aI1
aa(lp535
I539
aI460
aI1
aa(lp536
I223
aI460
aI1
aa(lp537
I224
aI459
aI1
aa(lp538
I219
aI459
aI1
aa(lp539
I565
aI458
aI1
aa(lp540
I368
aI458
aI1
aa(lp541
I356
aI458
aI1
aa(lp542
I225
aI457
aI1
aa(lp543
I270
aI456
aI1
aa(lp544
I224
aI456
aI1
aa(lp545
I377
aI455
aI1
aa(lp546
I289
aI455
aI1
aa(lp547
I226
aI455
aI1
aa(lp548
I330
aI454
aI1
aa(lp549
I223
aI454
aI1
aa(lp550
I570
aI453
aI1
aa(lp551
I223
aI453
aI1
aa(lp552
I219
aI453
aI1
aa(lp553
I223
aI452
aI1
aa(lp554
I572
aI451
aI1
aa(lp555
I222
aI451
aI1
aa(lp556
I217
aI451
aI1
aa(lp557
I216
aI451
aI1
aa(lp558
I227
aI450
aI1
aa(lp559
I216
aI450
aI1
aa(lp560
I574
aI449
aI1
aa(lp561
I535
aI449
aI1
aa(lp562
I227
aI449
aI1
aa(lp563
I222
aI449
aI1
aa(lp564
I220
aI449
aI1
aa(lp565
I217
aI449
aI1
aa(lp566
I386
aI448
aI1
aa(lp567
I227
aI448
aI1
aa(lp568
I220
aI448
aI1
aa(lp569
I219
aI448
aI1
aa(lp570
I781
aI447
aI1
aa(lp571
I607
aI447
aI1
aa(lp572
I575
aI447
aI1
aa(lp573
I227
aI447
aI1
aa(lp574
I217
aI447
aI1
aa(lp575
I227
aI446
aI1
aa(lp576
I220
aI446
aI1
aa(lp577
I577
aI445
aI1
aa(lp578
I578
aI444
aI1
aa(lp579
I227
aI444
aI1
aa(lp580
I219
aI444
aI1
aa(lp581
I217
aI444
aI1
aa(lp582
I219
aI443
aI1
aa(lp583
I217
aI443
aI1
aa(lp584
I579
aI442
aI1
aa(lp585
I280
aI441
aI1
aa(lp586
I999
aI440
aI1
aa(lp587
I996
aI440
aI1
aa(lp588
I995
aI440
aI1
aa(lp589
I994
aI440
aI1
aa(lp590
I580
aI440
aI1
aa(lp591
I219
aI440
aI1
aa(lp592
I1000
aI439
aI1
aa(lp593
I994
aI439
aI1
aa(lp594
I588
aI439
aI1
aa(lp595
I529
aI439
aI1
aa(lp596
I395
aI439
aI1
aa(lp597
I219
aI439
aI1
aa(lp598
I581
aI438
aI1
aa(lp599
I228
aI438
aI1
aa(lp600
I227
aI438
aI1
aa(lp601
I1000
aI437
aI1
aa(lp602
I227
aI437
aI1
aa(lp603
I993
aI436
aI1
aa(lp604
I598
aI436
aI1
aa(lp605
I583
aI436
aI1
aa(lp606
I582
aI436
aI1
aa(lp607
I219
aI436
aI1
aa(lp608
I297
aI435
aI1
aa(lp609
I227
aI435
aI1
aa(lp610
I217
aI435
aI1
aa(lp611
I583
aI434
aI1
aa(lp612
I403
aI434
aI1
aa(lp613
I305
aI434
aI1
aa(lp614
I227
aI434
aI1
aa(lp615
I219
aI434
aI1
aa(lp616
I585
aI432
aI1
aa(lp617
I219
aI432
aI1
aa(lp618
I587
aI430
aI1
aa(lp619
I578
aI430
aI1
aa(lp620
I219
aI430
aI1
aa(lp621
I227
aI429
aI1
aa(lp622
I219
aI429
aI1
aa(lp623
I588
aI428
aI1
aa(lp624
I408
aI428
aI1
aa(lp625
I227
aI428
aI1
aa(lp626
I219
aI428
aI1
aa(lp627
I219
aI427
aI1
aa(lp628
I523
aI426
aI1
aa(lp629
I227
aI426
aI1
aa(lp630
I219
aI426
aI1
aa(lp631
I984
aI425
aI1
aa(lp632
I590
aI425
aI1
aa(lp633
I227
aI425
aI1
aa(lp634
I219
aI425
aI1
aa(lp635
I593
aI424
aI1
aa(lp636
I410
aI424
aI1
aa(lp637
I596
aI423
aI1
aa(lp638
I241
aI423
aI1
aa(lp639
I227
aI423
aI1
aa(lp640
I219
aI423
aI1
aa(lp641
I599
aI422
aI1
aa(lp642
I220
aI422
aI1
aa(lp643
I764
aI421
aI1
aa(lp644
I227
aI421
aI1
aa(lp645
I218
aI421
aI1
aa(lp646
I601
aI420
aI1
aa(lp647
I227
aI420
aI1
aa(lp648
I608
aI419
aI1
aa(lp649
I603
aI419
aI1
aa(lp650
I410
aI419
aI1
aa(lp651
I606
aI418
aI1
aa(lp652
I605
aI418
aI1
aa(lp653
I604
aI418
aI1
aa(lp654
I570
aI418
aI1
aa(lp655
I227
aI418
aI1
aa(lp656
I218
aI418
aI1
aa(lp657
I606
aI417
aI1
aa(lp658
I288
aI417
aI1
aa(lp659
I227
aI417
aI1
aa(lp660
I227
aI415
aI1
aa(lp661
I606
aI414
aI1
aa(lp662
I564
aI414
aI1
aa(lp663
I410
aI414
aI1
aa(lp664
I227
aI414
aI1
aa(lp665
I218
aI414
aI1
aa(lp666
I222
aI412
aI1
aa(lp667
I227
aI411
aI1
aa(lp668
I218
aI411
aI1
aa(lp669
I242
aI410
aI1
aa(lp670
I960
aI409
aI1
aa(lp671
I605
aI409
aI1
aa(lp672
I219
aI409
aI1
aa(lp673
I228
aI408
aI1
aa(lp674
I516
aI407
aI1
aa(lp675
I228
aI407
aI1
aa(lp676
I227
aI407
aI1
aa(lp677
I219
aI407
aI1
aa(lp678
I410
aI406
aI1
aa(lp679
I257
aI405
aI1
aa(lp680
I227
aI405
aI1
aa(lp681
I563
aI404
aI1
aa(lp682
I227
aI404
aI1
aa(lp683
I219
aI404
aI1
aa(lp684
I225
aI403
aI1
aa(lp685
I219
aI403
aI1
aa(lp686
I303
aI401
aI1
aa(lp687
I226
aI400
aI1
aa(lp688
I219
aI400
aI1
aa(lp689
I227
aI399
aI1
aa(lp690
I225
aI399
aI1
aa(lp691
I219
aI399
aI1
aa(lp692
I225
aI398
aI1
aa(lp693
I711
aI397
aI1
aa(lp694
I709
aI397
aI1
aa(lp695
I707
aI397
aI1
aa(lp696
I702
aI397
aI1
aa(lp697
I599
aI397
aI1
aa(lp698
I410
aI397
aI1
aa(lp699
I225
aI397
aI1
aa(lp700
I219
aI397
aI1
aa(lp701
I204
aI397
aI1
aa(lp702
I195
aI397
aI1
aa(lp703
I192
aI397
aI1
aa(lp704
I190
aI397
aI1
aa(lp705
I711
aI396
aI1
aa(lp706
I305
aI396
aI1
aa(lp707
I219
aI396
aI1
aa(lp708
I189
aI396
aI1
aa(lp709
I693
aI395
aI1
aa(lp710
I228
aI395
aI1
aa(lp711
I225
aI395
aI1
aa(lp712
I216
aI395
aI1
aa(lp713
I938
aI394
aI1
aa(lp714
I707
aI394
aI1
aa(lp715
I408
aI394
aI1
aa(lp716
I235
aI394
aI1
aa(lp717
I219
aI394
aI1
aa(lp718
I229
aI393
aI1
aa(lp719
I679
aI392
aI1
aa(lp720
I242
aI392
aI1
aa(lp721
I225
aI392
aI1
aa(lp722
I219
aI392
aI1
aa(lp723
I407
aI391
aI1
aa(lp724
I228
aI391
aI1
aa(lp725
I556
aI390
aI1
aa(lp726
I252
aI390
aI1
aa(lp727
I228
aI390
aI1
aa(lp728
I227
aI390
aI1
aa(lp729
I219
aI390
aI1
aa(lp730
I405
aI389
aI1
aa(lp731
I268
aI389
aI1
aa(lp732
I226
aI389
aI1
aa(lp733
I224
aI389
aI1
aa(lp734
I219
aI389
aI1
aa(lp735
I700
aI388
aI1
aa(lp736
I313
aI388
aI1
aa(lp737
I226
aI387
aI1
aa(lp738
I224
aI387
aI1
aa(lp739
I219
aI387
aI1
aa(lp740
I205
aI387
aI1
aa(lp741
I402
aI386
aI1
aa(lp742
I287
aI386
aI1
aa(lp743
I225
aI386
aI1
aa(lp744
I224
aI386
aI1
aa(lp745
I398
aI385
aI1
aa(lp746
I302
aI385
aI1
aa(lp747
I270
aI385
aI1
aa(lp748
I224
aI385
aI1
aa(lp749
I219
aI385
aI1
aa(lp750
I740
aI384
aI1
aa(lp751
I645
aI384
aI1
aa(lp752
I549
aI384
aI1
aa(lp753
I521
aI384
aI1
aa(lp754
I391
aI383
aI1
aa(lp755
I224
aI383
aI1
aa(lp756
I219
aI383
aI1
aa(lp757
I472
aI382
aI1
aa(lp758
I468
aI382
aI1
aa(lp759
I461
aI382
aI1
aa(lp760
I454
aI382
aI1
aa(lp761
I318
aI382
aI1
aa(lp762
I224
aI382
aI1
aa(lp763
I223
aI382
aI1
aa(lp764
I508
aI381
aI1
aa(lp765
I475
aI381
aI1
aa(lp766
I450
aI381
aI1
aa(lp767
I385
aI381
aI1
aa(lp768
I224
aI381
aI1
aa(lp769
I322
aI380
aI1
aa(lp770
I216
aI380
aI1
aa(lp771
I446
aI379
aI1
aa(lp772
I379
aI379
aI1
aa(lp773
I322
aI379
aI1
aa(lp774
I222
aI379
aI1
aa(lp775
I221
aI379
aI1
aa(lp776
I219
aI379
aI1
aa(lp777
I216
aI379
aI1
aa(lp778
I679
aI378
aI1
aa(lp779
I216
aI378
aI1
aa(lp780
I482
aI377
aI1
aa(lp781
I223
aI377
aI1
aa(lp782
I216
aI377
aI1
aa(lp783
I699
aI376
aI1
aa(lp784
I696
aI376
aI1
aa(lp785
I695
aI376
aI1
aa(lp786
I694
aI376
aI1
aa(lp787
I693
aI376
aI1
aa(lp788
I442
aI376
aI1
aa(lp789
I374
aI376
aI1
aa(lp790
I324
aI376
aI1
aa(lp791
I220
aI376
aI1
aa(lp792
I216
aI376
aI1
aa(lp793
I708
aI375
aI1
aa(lp794
I706
aI375
aI1
aa(lp795
I703
aI375
aI1
aa(lp796
I689
aI375
aI1
aa(lp797
I592
aI375
aI1
aa(lp798
I538
aI375
aI1
aa(lp799
I223
aI375
aI1
aa(lp800
I710
aI374
aI1
aa(lp801
I437
aI374
aI1
aa(lp802
I350
aI374
aI1
aa(lp803
I220
aI374
aI1
aa(lp804
I711
aI373
aI1
aa(lp805
I483
aI373
aI1
aa(lp806
I365
aI373
aI1
aa(lp807
I223
aI373
aI1
aa(lp808
I220
aI373
aI1
aa(lp809
I429
aI372
aI1
aa(lp810
I223
aI372
aI1
aa(lp811
I222
aI372
aI1
aa(lp812
I310
aI371
aI1
aa(lp813
I901
aI370
aI1
aa(lp814
I352
aI370
aI1
aa(lp815
I242
aI370
aI1
aa(lp816
I216
aI370
aI1
aa(lp817
I423
aI369
aI1
aa(lp818
I216
aI369
aI1
aa(lp819
I419
aI368
aI1
aa(lp820
I365
aI368
aI1
aa(lp821
I328
aI368
aI1
aa(lp822
I223
aI368
aI1
aa(lp823
I222
aI368
aI1
aa(lp824
I216
aI368
aI1
aa(lp825
I601
aI367
aI1
aa(lp826
I549
aI367
aI1
aa(lp827
I528
aI367
aI1
aa(lp828
I501
aI367
aI1
aa(lp829
I484
aI367
aI1
aa(lp830
I417
aI367
aI1
aa(lp831
I330
aI367
aI1
aa(lp832
I222
aI367
aI1
aa(lp833
I717
aI366
aI1
aa(lp834
I646
aI366
aI1
aa(lp835
I546
aI366
aI1
aa(lp836
I540
aI366
aI1
aa(lp837
I415
aI366
aI1
aa(lp838
I328
aI366
aI1
aa(lp839
I223
aI366
aI1
aa(lp840
I222
aI366
aI1
aa(lp841
I216
aI366
aI1
aa(lp842
I186
aI366
aI1
aa(lp843
I328
aI365
aI1
aa(lp844
I223
aI365
aI1
aa(lp845
I222
aI365
aI1
aa(lp846
I216
aI365
aI1
aa(lp847
I223
aI364
aI1
aa(lp848
I216
aI364
aI1
aa(lp849
I540
aI363
aI1
aa(lp850
I424
aI363
aI1
aa(lp851
I312
aI363
aI1
aa(lp852
I285
aI363
aI1
aa(lp853
I223
aI363
aI1
aa(lp854
I587
aI362
aI1
aa(lp855
I533
aI362
aI1
aa(lp856
I485
aI362
aI1
aa(lp857
I431
aI362
aI1
aa(lp858
I223
aI362
aI1
aa(lp859
I222
aI362
aI1
aa(lp860
I216
aI362
aI1
aa(lp861
I716
aI361
aI1
aa(lp862
I443
aI361
aI1
aa(lp863
I216
aI361
aI1
aa(lp864
I720
aI360
aI1
aa(lp865
I526
aI360
aI1
aa(lp866
I523
aI360
aI1
aa(lp867
I487
aI360
aI1
aa(lp868
I224
aI360
aI1
aa(lp869
I713
aI359
aI1
aa(lp870
I511
aI359
aI1
aa(lp871
I449
aI359
aI1
aa(lp872
I224
aI359
aI1
aa(lp873
I216
aI359
aI1
aa(lp874
I161
aI359
aI1
aa(lp875
I160
aI359
aI1
aa(lp876
I503
aI358
aI1
aa(lp877
I462
aI358
aI1
aa(lp878
I456
aI358
aI1
aa(lp879
I377
aI358
aI1
aa(lp880
I222
aI358
aI1
aa(lp881
I217
aI358
aI1
aa(lp882
I161
aI358
aI1
aa(lp883
I970
aI357
aI1
aa(lp884
I496
aI357
aI1
aa(lp885
I489
aI357
aI1
aa(lp886
I487
aI357
aI1
aa(lp887
I474
aI357
aI1
aa(lp888
I970
aI356
aI1
aa(lp889
I969
aI356
aI1
aa(lp890
I968
aI356
aI1
aa(lp891
I489
aI355
aI1
aa(lp892
I224
aI355
aI1
aa(lp893
I160
aI355
aI1
aa(lp894
I496
aI354
aI1
aa(lp895
I334
aI354
aI1
aa(lp896
I547
aI353
aI1
aa(lp897
I523
aI353
aI1
aa(lp898
I321
aI353
aI1
aa(lp899
I224
aI353
aI1
aa(lp900
I961
aI352
aI1
aa(lp901
I221
aI352
aI1
aa(lp902
I220
aI352
aI1
aa(lp903
I492
aI351
aI1
aa(lp904
I224
aI351
aI1
aa(lp905
I707
aI350
aI1
aa(lp906
I675
aI350
aI1
aa(lp907
I225
aI350
aI1
aa(lp908
I220
aI350
aI1
aa(lp909
I221
aI349
aI1
aa(lp910
I159
aI349
aI1
aa(lp911
I388
aI348
aI1
aa(lp912
I502
aI347
aI1
aa(lp913
I488
aI347
aI1
aa(lp914
I226
aI347
aI1
aa(lp915
I225
aI347
aI1
aa(lp916
I157
aI347
aI1
aa(lp917
I616
aI346
aI1
aa(lp918
I515
aI346
aI1
aa(lp919
I281
aI346
aI1
aa(lp920
I227
aI346
aI1
aa(lp921
I220
aI346
aI1
aa(lp922
I394
aI345
aI1
aa(lp923
I393
aI345
aI1
aa(lp924
I226
aI345
aI1
aa(lp925
I225
aI345
aI1
aa(lp926
I523
aI344
aI1
aa(lp927
I338
aI344
aI1
aa(lp928
I221
aI344
aI1
aa(lp929
I494
aI343
aI1
aa(lp930
I226
aI343
aI1
aa(lp931
I224
aI343
aI1
aa(lp932
I220
aI342
aI1
aa(lp933
I694
aI341
aI1
aa(lp934
I573
aI341
aI1
aa(lp935
I396
aI341
aI1
aa(lp936
I489
aI340
aI1
aa(lp937
I474
aI340
aI1
aa(lp938
I220
aI340
aI1
aa(lp939
I842
aI339
aI1
aa(lp940
I225
aI339
aI1
aa(lp941
I224
aI339
aI1
aa(lp942
I398
aI338
aI1
aa(lp943
I225
aI338
aI1
aa(lp944
I527
aI337
aI1
aa(lp945
I526
aI337
aI1
aa(lp946
I223
aI337
aI1
aa(lp947
I221
aI337
aI1
aa(lp948
I220
aI337
aI1
aa(lp949
I466
aI336
aI1
aa(lp950
I465
aI336
aI1
aa(lp951
I464
aI336
aI1
aa(lp952
I400
aI336
aI1
aa(lp953
I528
aI335
aI1
aa(lp954
I527
aI335
aI1
aa(lp955
I461
aI335
aI1
aa(lp956
I457
aI335
aI1
aa(lp957
I450
aI335
aI1
aa(lp958
I225
aI335
aI1
aa(lp959
I220
aI335
aI1
aa(lp960
I482
aI334
aI1
aa(lp961
I453
aI334
aI1
aa(lp962
I221
aI334
aI1
aa(lp963
I529
aI333
aI1
aa(lp964
I482
aI333
aI1
aa(lp965
I403
aI333
aI1
aa(lp966
I220
aI333
aI1
aa(lp967
I158
aI333
aI1
aa(lp968
I530
aI332
aI1
aa(lp969
I472
aI332
aI1
aa(lp970
I454
aI332
aI1
aa(lp971
I450
aI332
aI1
aa(lp972
I225
aI332
aI1
aa(lp973
I222
aI332
aI1
aa(lp974
I927
aI331
aI1
aa(lp975
I482
aI331
aI1
aa(lp976
I448
aI331
aI1
aa(lp977
I220
aI331
aI1
aa(lp978
I532
aI330
aI1
aa(lp979
I482
aI330
aI1
aa(lp980
I447
aI330
aI1
aa(lp981
I422
aI330
aI1
aa(lp982
I219
aI330
aI1
aa(lp983
I499
aI329
aI1
aa(lp984
I482
aI329
aI1
aa(lp985
I225
aI329
aI1
aa(lp986
I223
aI329
aI1
aa(lp987
I683
aI328
aI1
aa(lp988
I564
aI328
aI1
aa(lp989
I446
aI328
aI1
aa(lp990
I445
aI328
aI1
aa(lp991
I406
aI328
aI1
aa(lp992
I223
aI328
aI1
aa(lp993
I483
aI327
aI1
aa(lp994
I475
aI327
aI1
aa(lp995
I345
aI327
aI1
aa(lp996
I226
aI327
aI1
aa(lp997
I224
aI327
aI1
aa(lp998
I479
aI326
aI1
aa(lp999
I444
aI326
aI1
aa(lp1000
I220
aI326
aI1
aa(lp1001
I219
aI326
aI1
aa(lp1002
I707
aI325
aI1
aa(lp1003
I654
aI325
aI1
aa(lp1004
I607
aI325
aI1
aa(lp1005
I442
aI325
aI1
aa(lp1006
I398
aI325
aI1
aa(lp1007
I231
aI325
aI1
aa(lp1008
I228
aI325
aI1
aa(lp1009
I224
aI325
aI1
aa(lp1010
I608
aI324
aI1
aa(lp1011
I606
aI324
aI1
aa(lp1012
I605
aI324
aI1
aa(lp1013
I483
aI324
aI1
aa(lp1014
I234
aI324
aI1
aa(lp1015
I671
aI323
aI1
aa(lp1016
I602
aI323
aI1
aa(lp1017
I535
aI323
aI1
aa(lp1018
I438
aI323
aI1
aa(lp1019
I409
aI323
aI1
aa(lp1020
I387
aI323
aI1
aa(lp1021
I240
aI323
aI1
aa(lp1022
I237
aI323
aI1
aa(lp1023
I483
aI322
aI1
aa(lp1024
I431
aI322
aI1
aa(lp1025
I417
aI322
aI1
aa(lp1026
I414
aI322
aI1
aa(lp1027
I410
aI322
aI1
aa(lp1028
I242
aI322
aI1
aa(lp1029
I220
aI322
aI1
aa(lp1030
I154
aI322
aI1
aa(lp1031
I623
aI321
aI1
aa(lp1032
I617
aI321
aI1
aa(lp1033
I613
aI321
aI1
aa(lp1034
I609
aI321
aI1
aa(lp1035
I606
aI321
aI1
aa(lp1036
I603
aI321
aI1
aa(lp1037
I601
aI321
aI1
aa(lp1038
I598
aI321
aI1
aa(lp1039
I592
aI321
aI1
aa(lp1040
I404
aI321
aI1
aa(lp1041
I245
aI321
aI1
aa(lp1042
I244
aI321
aI1
aa(lp1043
I626
aI320
aI1
aa(lp1044
I591
aI320
aI1
aa(lp1045
I484
aI320
aI1
aa(lp1046
I483
aI320
aI1
aa(lp1047
I467
aI320
aI1
aa(lp1048
I416
aI320
aI1
aa(lp1049
I412
aI320
aI1
aa(lp1050
I381
aI320
aI1
aa(lp1051
I300
aI320
aI1
aa(lp1052
I252
aI320
aI1
aa(lp1053
I250
aI320
aI1
aa(lp1054
I249
aI320
aI1
aa(lp1055
I248
aI320
aI1
aa(lp1056
I247
aI320
aI1
aa(lp1057
I636
aI319
aI1
aa(lp1058
I635
aI319
aI1
aa(lp1059
I633
aI319
aI1
aa(lp1060
I631
aI319
aI1
aa(lp1061
I629
aI319
aI1
aa(lp1062
I598
aI319
aI1
aa(lp1063
I597
aI319
aI1
aa(lp1064
I595
aI319
aI1
aa(lp1065
I547
aI319
aI1
aa(lp1066
I432
aI319
aI1
aa(lp1067
I410
aI319
aI1
aa(lp1068
I387
aI319
aI1
aa(lp1069
I352
aI319
aI1
aa(lp1070
I262
aI319
aI1
aa(lp1071
I256
aI319
aI1
aa(lp1072
I219
aI319
aI1
aa(lp1073
I638
aI318
aI1
aa(lp1074
I604
aI318
aI1
aa(lp1075
I601
aI318
aI1
aa(lp1076
I490
aI318
aI1
aa(lp1077
I409
aI318
aI1
aa(lp1078
I405
aI318
aI1
aa(lp1079
I376
aI318
aI1
aa(lp1080
I274
aI318
aI1
aa(lp1081
I270
aI318
aI1
aa(lp1082
I640
aI317
aI1
aa(lp1083
I607
aI317
aI1
aa(lp1084
I538
aI317
aI1
aa(lp1085
I416
aI317
aI1
aa(lp1086
I372
aI317
aI1
aa(lp1087
I370
aI317
aI1
aa(lp1088
I369
aI317
aI1
aa(lp1089
I278
aI317
aI1
aa(lp1090
I593
aI316
aI1
aa(lp1091
I568
aI316
aI1
aa(lp1092
I525
aI316
aI1
aa(lp1093
I495
aI316
aI1
aa(lp1094
I485
aI316
aI1
aa(lp1095
I480
aI316
aI1
aa(lp1096
I464
aI316
aI1
aa(lp1097
I447
aI316
aI1
aa(lp1098
I424
aI316
aI1
aa(lp1099
I398
aI316
aI1
aa(lp1100
I390
aI316
aI1
aa(lp1101
I345
aI316
aI1
aa(lp1102
I220
aI316
aI1
aa(lp1103
I659
aI315
aI1
aa(lp1104
I649
aI315
aI1
aa(lp1105
I644
aI315
aI1
aa(lp1106
I611
aI315
aI1
aa(lp1107
I592
aI315
aI1
aa(lp1108
I463
aI315
aI1
aa(lp1109
I387
aI315
aI1
aa(lp1110
I386
aI315
aI1
aa(lp1111
I283
aI315
aI1
aa(lp1112
I762
aI314
aI1
aa(lp1113
I615
aI314
aI1
aa(lp1114
I598
aI314
aI1
aa(lp1115
I591
aI314
aI1
aa(lp1116
I483
aI314
aI1
aa(lp1117
I429
aI314
aI1
aa(lp1118
I363
aI314
aI1
aa(lp1119
I655
aI313
aI1
aa(lp1120
I652
aI313
aI1
aa(lp1121
I481
aI313
aI1
aa(lp1122
I480
aI313
aI1
aa(lp1123
I477
aI313
aI1
aa(lp1124
I475
aI313
aI1
aa(lp1125
I472
aI313
aI1
aa(lp1126
I437
aI313
aI1
aa(lp1127
I433
aI313
aI1
aa(lp1128
I356
aI313
aI1
aa(lp1129
I219
aI313
aI1
aa(lp1130
I657
aI312
aI1
aa(lp1131
I539
aI312
aI1
aa(lp1132
I469
aI312
aI1
aa(lp1133
I467
aI312
aI1
aa(lp1134
I464
aI312
aI1
aa(lp1135
I461
aI312
aI1
aa(lp1136
I440
aI312
aI1
aa(lp1137
I386
aI312
aI1
aa(lp1138
I220
aI312
aI1
aa(lp1139
I657
aI311
aI1
aa(lp1140
I460
aI311
aI1
aa(lp1141
I459
aI311
aI1
aa(lp1142
I451
aI311
aI1
aa(lp1143
I445
aI311
aI1
aa(lp1144
I347
aI311
aI1
aa(lp1145
I293
aI311
aI1
aa(lp1146
I224
aI311
aI1
aa(lp1147
I657
aI310
aI1
aa(lp1148
I585
aI310
aI1
aa(lp1149
I464
aI310
aI1
aa(lp1150
I386
aI310
aI1
aa(lp1151
I468
aI309
aI1
aa(lp1152
I386
aI309
aI1
aa(lp1153
I358
aI309
aI1
aa(lp1154
I582
aI308
aI1
aa(lp1155
I542
aI308
aI1
aa(lp1156
I316
aI308
aI1
aa(lp1157
I249
aI308
aI1
aa(lp1158
I245
aI308
aI1
aa(lp1159
I243
aI308
aI1
aa(lp1160
I242
aI308
aI1
aa(lp1161
I241
aI308
aI1
aa(lp1162
I240
aI308
aI1
aa(lp1163
I239
aI308
aI1
aa(lp1164
I238
aI308
aI1
aa(lp1165
I236
aI308
aI1
aa(lp1166
I234
aI308
aI1
aa(lp1167
I232
aI308
aI1
aa(lp1168
I229
aI308
aI1
aa(lp1169
I228
aI308
aI1
aa(lp1170
I227
aI308
aI1
aa(lp1171
I225
aI308
aI1
aa(lp1172
I221
aI308
aI1
aa(lp1173
I152
aI308
aI1
aa(lp1174
I645
aI307
aI1
aa(lp1175
I589
aI307
aI1
aa(lp1176
I325
aI307
aI1
aa(lp1177
I277
aI307
aI1
aa(lp1178
I258
aI307
aI1
aa(lp1179
I219
aI307
aI1
aa(lp1180
I543
aI306
aI1
aa(lp1181
I383
aI306
aI1
aa(lp1182
I360
aI306
aI1
aa(lp1183
I304
aI306
aI1
aa(lp1184
I289
aI306
aI1
aa(lp1185
I580
aI305
aI1
aa(lp1186
I479
aI305
aI1
aa(lp1187
I293
aI305
aI1
aa(lp1188
I289
aI305
aI1
aa(lp1189
I286
aI305
aI1
aa(lp1190
I282
aI305
aI1
aa(lp1191
I710
aI304
aI1
aa(lp1192
I545
aI304
aI1
aa(lp1193
I505
aI304
aI1
aa(lp1194
I277
aI304
aI1
aa(lp1195
I271
aI304
aI1
aa(lp1196
I248
aI304
aI1
aa(lp1197
I244
aI304
aI1
aa(lp1198
I239
aI304
aI1
aa(lp1199
I236
aI304
aI1
aa(lp1200
I233
aI304
aI1
aa(lp1201
I232
aI304
aI1
aa(lp1202
I231
aI304
aI1
aa(lp1203
I228
aI304
aI1
aa(lp1204
I227
aI304
aI1
aa(lp1205
I225
aI304
aI1
aa(lp1206
I224
aI304
aI1
aa(lp1207
I221
aI304
aI1
aa(lp1208
I219
aI304
aI1
aa(lp1209
I322
aI303
aI1
aa(lp1210
I265
aI303
aI1
aa(lp1211
I261
aI303
aI1
aa(lp1212
I259
aI303
aI1
aa(lp1213
I257
aI303
aI1
aa(lp1214
I256
aI303
aI1
aa(lp1215
I255
aI303
aI1
aa(lp1216
I253
aI303
aI1
aa(lp1217
I252
aI303
aI1
aa(lp1218
I251
aI303
aI1
aa(lp1219
I699
aI302
aI1
aa(lp1220
I698
aI302
aI1
aa(lp1221
I697
aI302
aI1
aa(lp1222
I575
aI302
aI1
aa(lp1223
I547
aI302
aI1
aa(lp1224
I300
aI302
aI1
aa(lp1225
I149
aI302
aI1
aa(lp1226
I548
aI301
aI1
aa(lp1227
I222
aI301
aI1
aa(lp1228
I219
aI301
aI1
aa(lp1229
I701
aI300
aI1
aa(lp1230
I700
aI300
aI1
aa(lp1231
I550
aI300
aI1
aa(lp1232
I512
aI300
aI1
aa(lp1233
I482
aI300
aI1
aa(lp1234
I377
aI300
aI1
aa(lp1235
I355
aI300
aI1
aa(lp1236
I220
aI300
aI1
aa(lp1237
I219
aI300
aI1
aa(lp1238
I621
aI299
aI1
aa(lp1239
I569
aI299
aI1
aa(lp1240
I360
aI299
aI1
aa(lp1241
I351
aI299
aI1
aa(lp1242
I704
aI298
aI1
aa(lp1243
I561
aI298
aI1
aa(lp1244
I554
aI298
aI1
aa(lp1245
I552
aI298
aI1
aa(lp1246
I511
aI298
aI1
aa(lp1247
I494
aI298
aI1
aa(lp1248
I314
aI298
aI1
aa(lp1249
I644
aI297
aI1
aa(lp1250
I601
aI297
aI1
aa(lp1251
I565
aI297
aI1
aa(lp1252
I562
aI297
aI1
aa(lp1253
I561
aI297
aI1
aa(lp1254
I558
aI297
aI1
aa(lp1255
I556
aI297
aI1
aa(lp1256
I148
aI297
aI1
aa(lp1257
I774
aI296
aI1
aa(lp1258
I708
aI296
aI1
aa(lp1259
I572
aI296
aI1
aa(lp1260
I629
aI294
aI1
aa(lp1261
I564
aI294
aI1
aa(lp1262
I499
aI294
aI1
aa(lp1263
I481
aI294
aI1
aa(lp1264
I463
aI294
aI1
aa(lp1265
I534
aI293
aI1
aa(lp1266
I374
aI293
aI1
aa(lp1267
I701
aI292
aI1
aa(lp1268
I556
aI292
aI1
aa(lp1269
I465
aI292
aI1
aa(lp1270
I714
aI291
aI1
aa(lp1271
I659
aI291
aI1
aa(lp1272
I588
aI291
aI1
aa(lp1273
I446
aI291
aI1
aa(lp1274
I436
aI291
aI1
aa(lp1275
I332
aI291
aI1
aa(lp1276
I711
aI290
aI1
aa(lp1277
I608
aI290
aI1
aa(lp1278
I616
aI289
aI1
aa(lp1279
I614
aI289
aI1
aa(lp1280
I606
aI289
aI1
aa(lp1281
I526
aI288
aI1
aa(lp1282
I478
aI288
aI1
aa(lp1283
I333
aI288
aI1
aa(lp1284
I725
aI287
aI1
aa(lp1285
I674
aI287
aI1
aa(lp1286
I618
aI287
aI1
aa(lp1287
I512
aI287
aI1
aa(lp1288
I429
aI287
aI1
aa(lp1289
I360
aI287
aI1
aa(lp1290
I139
aI287
aI1
aa(lp1291
I871
aI286
aI1
aa(lp1292
I846
aI286
aI1
aa(lp1293
I802
aI286
aI1
aa(lp1294
I776
aI286
aI1
aa(lp1295
I685
aI286
aI1
aa(lp1296
I680
aI286
aI1
aa(lp1297
I619
aI286
aI1
aa(lp1298
I618
aI286
aI1
aa(lp1299
I412
aI286
aI1
aa(lp1300
I144
aI286
aI1
aa(lp1301
I682
aI285
aI1
aa(lp1302
I619
aI285
aI1
aa(lp1303
I602
aI285
aI1
aa(lp1304
I416
aI285
aI1
aa(lp1305
I377
aI285
aI1
aa(lp1306
I366
aI285
aI1
aa(lp1307
I347
aI285
aI1
aa(lp1308
I682
aI284
aI1
aa(lp1309
I681
aI284
aI1
aa(lp1310
I619
aI284
aI1
aa(lp1311
I66
aI284
aI1
aa(lp1312
I63
aI284
aI1
aa(lp1313
I907
aI283
aI1
aa(lp1314
I817
aI283
aI1
aa(lp1315
I709
aI283
aI1
aa(lp1316
I655
aI283
aI1
aa(lp1317
I187
aI283
aI1
aa(lp1318
I62
aI283
aI1
aa(lp1319
I729
aI282
aI1
aa(lp1320
I704
aI282
aI1
aa(lp1321
I619
aI282
aI1
aa(lp1322
I561
aI282
aI1
aa(lp1323
I425
aI282
aI1
aa(lp1324
I187
aI282
aI1
aa(lp1325
I185
aI282
aI1
aa(lp1326
I721
aI281
aI1
aa(lp1327
I672
aI281
aI1
aa(lp1328
I622
aI281
aI1
aa(lp1329
I539
aI281
aI1
aa(lp1330
I180
aI281
aI1
aa(lp1331
I70
aI281
aI1
aa(lp1332
I797
aI280
aI1
aa(lp1333
I619
aI280
aI1
aa(lp1334
I516
aI280
aI1
aa(lp1335
I429
aI280
aI1
aa(lp1336
I390
aI280
aI1
aa(lp1337
I73
aI280
aI1
aa(lp1338
I942
aI279
aI1
aa(lp1339
I797
aI279
aI1
aa(lp1340
I795
aI279
aI1
aa(lp1341
I421
aI279
aI1
aa(lp1342
I177
aI279
aI1
aa(lp1343
I784
aI278
aI1
aa(lp1344
I781
aI278
aI1
aa(lp1345
I664
aI278
aI1
aa(lp1346
I349
aI278
aI1
aa(lp1347
I67
aI278
aI1
aa(lp1348
I787
aI277
aI1
aa(lp1349
I778
aI277
aI1
aa(lp1350
I619
aI277
aI1
aa(lp1351
I467
aI277
aI1
aa(lp1352
I460
aI277
aI1
aa(lp1353
I446
aI277
aI1
aa(lp1354
I892
aI276
aI1
aa(lp1355
I741
aI276
aI1
aa(lp1356
I733
aI276
aI1
aa(lp1357
I655
aI276
aI1
aa(lp1358
I587
aI276
aI1
aa(lp1359
I472
aI276
aI1
aa(lp1360
I281
aI276
aI1
aa(lp1361
I82
aI276
aI1
aa(lp1362
I81
aI276
aI1
aa(lp1363
I775
aI275
aI1
aa(lp1364
I619
aI275
aI1
aa(lp1365
I535
aI275
aI1
aa(lp1366
I438
aI275
aI1
aa(lp1367
I435
aI275
aI1
aa(lp1368
I372
aI275
aI1
aa(lp1369
I302
aI275
aI1
aa(lp1370
I281
aI275
aI1
aa(lp1371
I173
aI275
aI1
aa(lp1372
I84
aI275
aI1
aa(lp1373
I712
aI274
aI1
aa(lp1374
I648
aI274
aI1
aa(lp1375
I553
aI274
aI1
aa(lp1376
I476
aI274
aI1
aa(lp1377
I429
aI274
aI1
aa(lp1378
I312
aI274
aI1
aa(lp1379
I287
aI274
aI1
aa(lp1380
I286
aI274
aI1
aa(lp1381
I285
aI274
aI1
aa(lp1382
I284
aI274
aI1
aa(lp1383
I283
aI274
aI1
aa(lp1384
I76
aI274
aI1
aa(lp1385
I775
aI273
aI1
aa(lp1386
I771
aI273
aI1
aa(lp1387
I766
aI273
aI1
aa(lp1388
I761
aI273
aI1
aa(lp1389
I617
aI273
aI1
aa(lp1390
I483
aI273
aI1
aa(lp1391
I479
aI273
aI1
aa(lp1392
I474
aI273
aI1
aa(lp1393
I473
aI273
aI1
aa(lp1394
I468
aI273
aI1
aa(lp1395
I462
aI273
aI1
aa(lp1396
I424
aI273
aI1
aa(lp1397
I421
aI273
aI1
aa(lp1398
I419
aI273
aI1
aa(lp1399
I355
aI273
aI1
aa(lp1400
I291
aI273
aI1
aa(lp1401
I288
aI273
aI1
aa(lp1402
I86
aI273
aI1
aa(lp1403
I840
aI272
aI1
aa(lp1404
I786
aI272
aI1
aa(lp1405
I760
aI272
aI1
aa(lp1406
I691
aI272
aI1
aa(lp1407
I640
aI272
aI1
aa(lp1408
I616
aI272
aI1
aa(lp1409
I520
aI272
aI1
aa(lp1410
I485
aI272
aI1
aa(lp1411
I451
aI272
aI1
aa(lp1412
I449
aI272
aI1
aa(lp1413
I448
aI272
aI1
aa(lp1414
I446
aI272
aI1
aa(lp1415
I443
aI272
aI1
aa(lp1416
I360
aI272
aI1
aa(lp1417
I350
aI272
aI1
aa(lp1418
I293
aI272
aI1
aa(lp1419
I954
aI271
aI1
aa(lp1420
I763
aI271
aI1
aa(lp1421
I758
aI271
aI1
aa(lp1422
I749
aI271
aI1
aa(lp1423
I614
aI271
aI1
aa(lp1424
I503
aI271
aI1
aa(lp1425
I487
aI271
aI1
aa(lp1426
I469
aI271
aI1
aa(lp1427
I456
aI271
aI1
aa(lp1428
I453
aI271
aI1
aa(lp1429
I376
aI271
aI1
aa(lp1430
I342
aI271
aI1
aa(lp1431
I297
aI271
aI1
aa(lp1432
I295
aI271
aI1
aa(lp1433
I769
aI270
aI1
aa(lp1434
I756
aI270
aI1
aa(lp1435
I611
aI270
aI1
aa(lp1436
I588
aI270
aI1
aa(lp1437
I531
aI270
aI1
aa(lp1438
I527
aI270
aI1
aa(lp1439
I524
aI270
aI1
aa(lp1440
I523
aI270
aI1
aa(lp1441
I522
aI270
aI1
aa(lp1442
I440
aI270
aI1
aa(lp1443
I847
aI269
aI1
aa(lp1444
I780
aI269
aI1
aa(lp1445
I754
aI269
aI1
aa(lp1446
I608
aI269
aI1
aa(lp1447
I592
aI269
aI1
aa(lp1448
I579
aI269
aI1
aa(lp1449
I563
aI269
aI1
aa(lp1450
I545
aI269
aI1
aa(lp1451
I537
aI269
aI1
aa(lp1452
I343
aI269
aI1
aa(lp1453
I342
aI269
aI1
aa(lp1454
I299
aI269
aI1
aa(lp1455
I90
aI269
aI1
aa(lp1456
I849
aI268
aI1
aa(lp1457
I813
aI268
aI1
aa(lp1458
I632
aI268
aI1
aa(lp1459
I603
aI268
aI1
aa(lp1460
I601
aI268
aI1
aa(lp1461
I597
aI268
aI1
aa(lp1462
I595
aI268
aI1
aa(lp1463
I594
aI268
aI1
aa(lp1464
I593
aI268
aI1
aa(lp1465
I589
aI268
aI1
aa(lp1466
I413
aI268
aI1
aa(lp1467
I170
aI268
aI1
aa(lp1468
I88
aI268
aI1
aa(lp1469
I841
aI267
aI1
aa(lp1470
I836
aI267
aI1
aa(lp1471
I827
aI267
aI1
aa(lp1472
I812
aI267
aI1
aa(lp1473
I792
aI267
aI1
aa(lp1474
I756
aI267
aI1
aa(lp1475
I604
aI267
aI1
aa(lp1476
I590
aI267
aI1
aa(lp1477
I521
aI267
aI1
aa(lp1478
I308
aI267
aI1
aa(lp1479
I913
aI266
aI1
aa(lp1480
I872
aI266
aI1
aa(lp1481
I849
aI266
aI1
aa(lp1482
I848
aI266
aI1
aa(lp1483
I845
aI266
aI1
aa(lp1484
I751
aI266
aI1
aa(lp1485
I704
aI266
aI1
aa(lp1486
I680
aI266
aI1
aa(lp1487
I657
aI266
aI1
aa(lp1488
I634
aI266
aI1
aa(lp1489
I396
aI266
aI1
aa(lp1490
I360
aI266
aI1
aa(lp1491
I141
aI266
aI1
aa(lp1492
I95
aI266
aI1
aa(lp1493
I584
aI265
aI1
aa(lp1494
I407
aI265
aI1
aa(lp1495
I360
aI265
aI1
aa(lp1496
I358
aI265
aI1
aa(lp1497
I304
aI265
aI1
aa(lp1498
I385
aI264
aI1
aa(lp1499
I716
aI263
aI1
aa(lp1500
I360
aI263
aI1
aa(lp1501
I728
aI262
aI1
aa(lp1502
I570
aI262
aI1
aa(lp1503
I541
aI262
aI1
aa(lp1504
I99
aI262
aI1
aa(lp1505
I964
aI261
aI1
aa(lp1506
I943
aI261
aI1
aa(lp1507
I737
aI261
aI1
aa(lp1508
I617
aI261
aI1
aa(lp1509
I360
aI261
aI1
aa(lp1510
I344
aI261
aI1
aa(lp1511
I955
aI260
aI1
aa(lp1512
I743
aI260
aI1
aa(lp1513
I742
aI260
aI1
aa(lp1514
I741
aI260
aI1
aa(lp1515
I568
aI260
aI1
aa(lp1516
I307
aI260
aI1
aa(lp1517
I103
aI260
aI1
aa(lp1518
I360
aI259
aI1
aa(lp1519
I741
aI258
aI1
aa(lp1520
I544
aI258
aI1
aa(lp1521
I360
aI258
aI1
aa(lp1522
I383
aI257
aI1
aa(lp1523
I363
aI257
aI1
aa(lp1524
I167
aI257
aI1
aa(lp1525
I739
aI256
aI1
aa(lp1526
I737
aI256
aI1
aa(lp1527
I965
aI255
aI1
aa(lp1528
I964
aI255
aI1
aa(lp1529
I736
aI255
aI1
aa(lp1530
I568
aI255
aI1
aa(lp1531
I512
aI255
aI1
aa(lp1532
I466
aI255
aI1
aa(lp1533
I367
aI255
aI1
aa(lp1534
I361
aI255
aI1
aa(lp1535
I349
aI255
aI1
aa(lp1536
I112
aI255
aI1
aa(lp1537
I729
aI254
aI1
aa(lp1538
I109
aI254
aI1
aa(lp1539
I717
aI253
aI1
aa(lp1540
I542
aI253
aI1
aa(lp1541
I365
aI253
aI1
aa(lp1542
I361
aI253
aI1
aa(lp1543
I312
aI253
aI1
aa(lp1544
I706
aI252
aI1
aa(lp1545
I584
aI252
aI1
aa(lp1546
I111
aI252
aI1
aa(lp1547
I782
aI251
aI1
aa(lp1548
I525
aI251
aI1
aa(lp1549
I499
aI251
aI1
aa(lp1550
I415
aI251
aI1
aa(lp1551
I306
aI251
aI1
aa(lp1552
I113
aI251
aI1
aa(lp1553
I958
aI250
aI1
aa(lp1554
I957
aI250
aI1
aa(lp1555
I955
aI250
aI1
aa(lp1556
I695
aI250
aI1
aa(lp1557
I525
aI250
aI1
aa(lp1558
I509
aI250
aI1
aa(lp1559
I431
aI250
aI1
aa(lp1560
I362
aI250
aI1
aa(lp1561
I241
aI250
aI1
aa(lp1562
I165
aI250
aI1
aa(lp1563
I954
aI249
aI1
aa(lp1564
I472
aI249
aI1
aa(lp1565
I366
aI249
aI1
aa(lp1566
I116
aI249
aI1
aa(lp1567
I953
aI248
aI1
aa(lp1568
I679
aI248
aI1
aa(lp1569
I662
aI248
aI1
aa(lp1570
I657
aI248
aI1
aa(lp1571
I653
aI248
aI1
aa(lp1572
I650
aI248
aI1
aa(lp1573
I648
aI248
aI1
aa(lp1574
I951
aI247
aI1
aa(lp1575
I949
aI247
aI1
aa(lp1576
I600
aI247
aI1
aa(lp1577
I371
aI247
aI1
aa(lp1578
I362
aI247
aI1
aa(lp1579
I684
aI246
aI1
aa(lp1580
I526
aI246
aI1
aa(lp1581
I378
aI246
aI1
aa(lp1582
I374
aI246
aI1
aa(lp1583
I140
aI246
aI1
aa(lp1584
I121
aI246
aI1
aa(lp1585
I779
aI245
aI1
aa(lp1586
I773
aI245
aI1
aa(lp1587
I646
aI245
aI1
aa(lp1588
I492
aI245
aI1
aa(lp1589
I357
aI245
aI1
aa(lp1590
I318
aI245
aI1
aa(lp1591
I165
aI245
aI1
aa(lp1592
I136
aI245
aI1
aa(lp1593
I946
aI244
aI1
aa(lp1594
I942
aI244
aI1
aa(lp1595
I786
aI244
aI1
aa(lp1596
I782
aI244
aI1
aa(lp1597
I760
aI244
aI1
aa(lp1598
I469
aI244
aI1
aa(lp1599
I269
aI244
aI1
aa(lp1600
I968
aI243
aI1
aa(lp1601
I790
aI243
aI1
aa(lp1602
I711
aI243
aI1
aa(lp1603
I562
aI243
aI1
aa(lp1604
I542
aI243
aI1
aa(lp1605
I498
aI243
aI1
aa(lp1606
I165
aI243
aI1
aa(lp1607
I963
aI242
aI1
aa(lp1608
I936
aI242
aI1
aa(lp1609
I923
aI242
aI1
aa(lp1610
I901
aI242
aI1
aa(lp1611
I848
aI242
aI1
aa(lp1612
I823
aI242
aI1
aa(lp1613
I808
aI242
aI1
aa(lp1614
I801
aI242
aI1
aa(lp1615
I799
aI242
aI1
aa(lp1616
I797
aI242
aI1
aa(lp1617
I796
aI242
aI1
aa(lp1618
I795
aI242
aI1
aa(lp1619
I382
aI242
aI1
aa(lp1620
I362
aI242
aI1
aa(lp1621
I331
aI242
aI1
aa(lp1622
I127
aI242
aI1
aa(lp1623
I747
aI241
aI1
aa(lp1624
I639
aI241
aI1
aa(lp1625
I114
aI241
aI1
aa(lp1626
I880
aI240
aI1
aa(lp1627
I863
aI240
aI1
aa(lp1628
I513
aI240
aI1
aa(lp1629
I497
aI240
aI1
aa(lp1630
I463
aI240
aI1
aa(lp1631
I440
aI240
aI1
aa(lp1632
I874
aI239
aI1
aa(lp1633
I737
aI239
aI1
aa(lp1634
I511
aI239
aI1
aa(lp1635
I406
aI239
aI1
aa(lp1636
I389
aI239
aI1
aa(lp1637
I165
aI239
aI1
aa(lp1638
I501
aI238
aI1
aa(lp1639
I492
aI238
aI1
aa(lp1640
I136
aI238
aI1
aa(lp1641
I968
aI237
aI1
aa(lp1642
I929
aI237
aI1
aa(lp1643
I721
aI237
aI1
aa(lp1644
I482
aI237
aI1
aa(lp1645
I321
aI237
aI1
aa(lp1646
I140
aI237
aI1
aa(lp1647
I830
aI236
aI1
aa(lp1648
I706
aI236
aI1
aa(lp1649
I506
aI236
aI1
aa(lp1650
I472
aI236
aI1
aa(lp1651
I468
aI236
aI1
aa(lp1652
I365
aI236
aI1
aa(lp1653
I362
aI236
aI1
aa(lp1654
I331
aI236
aI1
aa(lp1655
I449
aI235
aI1
aa(lp1656
I367
aI235
aI1
aa(lp1657
I256
aI235
aI1
aa(lp1658
I165
aI235
aI1
aa(lp1659
I151
aI235
aI1
aa(lp1660
I1025
aI234
aI1
aa(lp1661
I679
aI234
aI1
aa(lp1662
I438
aI234
aI1
aa(lp1663
I696
aI233
aI1
aa(lp1664
I356
aI233
aI1
aa(lp1665
I252
aI233
aI1
aa(lp1666
I438
aI232
aI1
aa(lp1667
I392
aI232
aI1
aa(lp1668
I373
aI232
aI1
aa(lp1669
I362
aI232
aI1
aa(lp1670
I254
aI232
aI1
aa(lp1671
I253
aI232
aI1
aa(lp1672
I802
aI231
aI1
aa(lp1673
I690
aI231
aI1
aa(lp1674
I490
aI230
aI1
aa(lp1675
I362
aI230
aI1
aa(lp1676
I165
aI230
aI1
aa(lp1677
I158
aI230
aI1
aa(lp1678
I154
aI230
aI1
aa(lp1679
I140
aI230
aI1
aa(lp1680
I1061
aI229
aI1
aa(lp1681
I677
aI229
aI1
aa(lp1682
I622
aI229
aI1
aa(lp1683
I472
aI229
aI1
aa(lp1684
I448
aI229
aI1
aa(lp1685
I446
aI229
aI1
aa(lp1686
I445
aI229
aI1
aa(lp1687
I684
aI228
aI1
aa(lp1688
I483
aI228
aI1
aa(lp1689
I451
aI228
aI1
aa(lp1690
I374
aI228
aI1
aa(lp1691
I307
aI228
aI1
aa(lp1692
I826
aI227
aI1
aa(lp1693
I500
aI227
aI1
aa(lp1694
I480
aI227
aI1
aa(lp1695
I454
aI227
aI1
aa(lp1696
I436
aI227
aI1
aa(lp1697
I368
aI227
aI1
aa(lp1698
I358
aI227
aI1
aa(lp1699
I300
aI227
aI1
aa(lp1700
I161
aI227
aI1
aa(lp1701
I680
aI226
aI1
aa(lp1702
I677
aI226
aI1
aa(lp1703
I676
aI226
aI1
aa(lp1704
I479
aI226
aI1
aa(lp1705
I458
aI226
aI1
aa(lp1706
I370
aI226
aI1
aa(lp1707
I326
aI226
aI1
aa(lp1708
I243
aI226
aI1
aa(lp1709
I1099
aI225
aI1
aa(lp1710
I780
aI225
aI1
aa(lp1711
I675
aI225
aI1
aa(lp1712
I461
aI225
aI1
aa(lp1713
I430
aI225
aI1
aa(lp1714
I389
aI225
aI1
aa(lp1715
I372
aI225
aI1
aa(lp1716
I676
aI224
aI1
aa(lp1717
I660
aI224
aI1
aa(lp1718
I567
aI224
aI1
aa(lp1719
I487
aI224
aI1
aa(lp1720
I472
aI224
aI1
aa(lp1721
I74
aI224
aI1
aa(lp1722
I838
aI223
aI1
aa(lp1723
I810
aI223
aI1
aa(lp1724
I619
aI223
aI1
aa(lp1725
I462
aI223
aI1
aa(lp1726
I445
aI223
aI1
aa(lp1727
I373
aI223
aI1
aa(lp1728
I161
aI223
aI1
aa(lp1729
I857
aI222
aI1
aa(lp1730
I462
aI222
aI1
aa(lp1731
I412
aI222
aI1
aa(lp1732
I291
aI222
aI1
aa(lp1733
I161
aI222
aI1
aa(lp1734
I603
aI221
aI1
aa(lp1735
I588
aI221
aI1
aa(lp1736
I376
aI221
aI1
aa(lp1737
I366
aI221
aI1
aa(lp1738
I1246
aI220
aI1
aa(lp1739
I1242
aI220
aI1
aa(lp1740
I1241
aI220
aI1
aa(lp1741
I1239
aI220
aI1
aa(lp1742
I793
aI220
aI1
aa(lp1743
I753
aI220
aI1
aa(lp1744
I477
aI220
aI1
aa(lp1745
I472
aI220
aI1
aa(lp1746
I462
aI220
aI1
aa(lp1747
I377
aI220
aI1
aa(lp1748
I301
aI220
aI1
aa(lp1749
I964
aI219
aI1
aa(lp1750
I462
aI219
aI1
aa(lp1751
I279
aI219
aI1
aa(lp1752
I1114
aI218
aI1
aa(lp1753
I477
aI218
aI1
aa(lp1754
I462
aI218
aI1
aa(lp1755
I425
aI218
aI1
aa(lp1756
I279
aI218
aI1
aa(lp1757
I275
aI218
aI1
aa(lp1758
I273
aI218
aI1
aa(lp1759
I272
aI218
aI1
aa(lp1760
I270
aI218
aI1
aa(lp1761
I266
aI218
aI1
aa(lp1762
I262
aI218
aI1
aa(lp1763
I166
aI218
aI1
aa(lp1764
I1257
aI217
aI1
aa(lp1765
I743
aI217
aI1
aa(lp1766
I477
aI217
aI1
aa(lp1767
I379
aI217
aI1
aa(lp1768
I258
aI217
aI1
aa(lp1769
I164
aI217
aI1
aa(lp1770
I1238
aI216
aI1
aa(lp1771
I740
aI216
aI1
aa(lp1772
I580
aI216
aI1
aa(lp1773
I481
aI216
aI1
aa(lp1774
I477
aI216
aI1
aa(lp1775
I462
aI216
aI1
aa(lp1776
I452
aI216
aI1
aa(lp1777
I421
aI216
aI1
aa(lp1778
I411
aI216
aI1
aa(lp1779
I274
aI216
aI1
aa(lp1780
I237
aI216
aI1
aa(lp1781
I1260
aI215
aI1
aa(lp1782
I889
aI215
aI1
aa(lp1783
I740
aI215
aI1
aa(lp1784
I421
aI215
aI1
aa(lp1785
I420
aI215
aI1
aa(lp1786
I382
aI215
aI1
aa(lp1787
I253
aI215
aI1
aa(lp1788
I141
aI215
aI1
aa(lp1789
I1125
aI214
aI1
aa(lp1790
I648
aI214
aI1
aa(lp1791
I478
aI214
aI1
aa(lp1792
I420
aI214
aI1
aa(lp1793
I416
aI214
aI1
aa(lp1794
I389
aI214
aI1
aa(lp1795
I254
aI214
aI1
aa(lp1796
I1237
aI213
aI1
aa(lp1797
I737
aI213
aI1
aa(lp1798
I478
aI213
aI1
aa(lp1799
I461
aI213
aI1
aa(lp1800
I400
aI213
aI1
aa(lp1801
I369
aI213
aI1
aa(lp1802
I166
aI213
aI1
aa(lp1803
I786
aI212
aI1
aa(lp1804
I733
aI212
aI1
aa(lp1805
I489
aI212
aI1
aa(lp1806
I480
aI212
aI1
aa(lp1807
I473
aI212
aI1
aa(lp1808
I432
aI212
aI1
aa(lp1809
I248
aI212
aI1
aa(lp1810
I167
aI212
aI1
aa(lp1811
I722
aI211
aI1
aa(lp1812
I518
aI211
aI1
aa(lp1813
I487
aI211
aI1
aa(lp1814
I484
aI211
aI1
aa(lp1815
I481
aI211
aI1
aa(lp1816
I474
aI211
aI1
aa(lp1817
I245
aI211
aI1
aa(lp1818
I619
aI210
aI1
aa(lp1819
I481
aI210
aI1
aa(lp1820
I476
aI210
aI1
aa(lp1821
I474
aI210
aI1
aa(lp1822
I456
aI210
aI1
aa(lp1823
I387
aI210
aI1
aa(lp1824
I372
aI210
aI1
aa(lp1825
I1265
aI209
aI1
aa(lp1826
I562
aI209
aI1
aa(lp1827
I481
aI209
aI1
aa(lp1828
I475
aI209
aI1
aa(lp1829
I464
aI209
aI1
aa(lp1830
I424
aI209
aI1
aa(lp1831
I376
aI209
aI1
aa(lp1832
I243
aI209
aI1
aa(lp1833
I241
aI209
aI1
aa(lp1834
I168
aI209
aI1
aa(lp1835
I1237
aI208
aI1
aa(lp1836
I940
aI208
aI1
aa(lp1837
I786
aI208
aI1
aa(lp1838
I478
aI208
aI1
aa(lp1839
I474
aI208
aI1
aa(lp1840
I462
aI208
aI1
aa(lp1841
I380
aI208
aI1
aa(lp1842
I170
aI208
aI1
aa(lp1843
I789
aI207
aI1
aa(lp1844
I437
aI207
aI1
aa(lp1845
I389
aI207
aI1
aa(lp1846
I386
aI207
aI1
aa(lp1847
I383
aI207
aI1
aa(lp1848
I229
aI207
aI1
aa(lp1849
I193
aI207
aI1
aa(lp1850
I184
aI207
aI1
aa(lp1851
I176
aI207
aI1
aa(lp1852
I168
aI207
aI1
aa(lp1853
I1143
aI206
aI1
aa(lp1854
I1142
aI206
aI1
aa(lp1855
I1141
aI206
aI1
aa(lp1856
I479
aI206
aI1
aa(lp1857
I470
aI206
aI1
aa(lp1858
I447
aI206
aI1
aa(lp1859
I409
aI206
aI1
aa(lp1860
I404
aI206
aI1
aa(lp1861
I399
aI206
aI1
aa(lp1862
I395
aI206
aI1
aa(lp1863
I393
aI206
aI1
aa(lp1864
I391
aI206
aI1
aa(lp1865
I375
aI206
aI1
aa(lp1866
I1144
aI205
aI1
aa(lp1867
I472
aI205
aI1
aa(lp1868
I468
aI205
aI1
aa(lp1869
I437
aI205
aI1
aa(lp1870
I429
aI205
aI1
aa(lp1871
I422
aI205
aI1
aa(lp1872
I420
aI205
aI1
aa(lp1873
I417
aI205
aI1
aa(lp1874
I414
aI205
aI1
aa(lp1875
I393
aI205
aI1
aa(lp1876
I198
aI205
aI1
aa(lp1877
I1150
aI204
aI1
aa(lp1878
I1149
aI204
aI1
aa(lp1879
I784
aI204
aI1
aa(lp1880
I476
aI204
aI1
aa(lp1881
I474
aI204
aI1
aa(lp1882
I427
aI204
aI1
aa(lp1883
I425
aI204
aI1
aa(lp1884
I202
aI204
aI1
aa(lp1885
I1162
aI203
aI1
aa(lp1886
I1156
aI203
aI1
aa(lp1887
I1153
aI203
aI1
aa(lp1888
I1152
aI203
aI1
aa(lp1889
I1151
aI203
aI1
aa(lp1890
I477
aI203
aI1
aa(lp1891
I436
aI203
aI1
aa(lp1892
I434
aI203
aI1
aa(lp1893
I431
aI203
aI1
aa(lp1894
I278
aI203
aI1
aa(lp1895
I1237
aI202
aI1
aa(lp1896
I1175
aI202
aI1
aa(lp1897
I475
aI202
aI1
aa(lp1898
I439
aI202
aI1
aa(lp1899
I397
aI202
aI1
aa(lp1900
I695
aI201
aI1
aa(lp1901
I475
aI201
aI1
aa(lp1902
I474
aI201
aI1
aa(lp1903
I206
aI201
aI1
aa(lp1904
I176
aI201
aI1
aa(lp1905
I974
aI200
aI1
aa(lp1906
I625
aI200
aI1
aa(lp1907
I572
aI200
aI1
aa(lp1908
I442
aI200
aI1
aa(lp1909
I400
aI200
aI1
aa(lp1910
I222
aI200
aI1
aa(lp1911
I211
aI200
aI1
aa(lp1912
I169
aI200
aI1
aa(lp1913
I1271
aI199
aI1
aa(lp1914
I1196
aI199
aI1
aa(lp1915
I477
aI199
aI1
aa(lp1916
I455
aI199
aI1
aa(lp1917
I403
aI199
aI1
aa(lp1918
I212
aI199
aI1
aa(lp1919
I142
aI199
aI1
aa(lp1920
I1237
aI198
aI1
aa(lp1921
I876
aI198
aI1
aa(lp1922
I353
aI198
aI1
aa(lp1923
I213
aI198
aI1
aa(lp1924
I1210
aI197
aI1
aa(lp1925
I440
aI197
aI1
aa(lp1926
I406
aI197
aI1
aa(lp1927
I217
aI197
aI1
aa(lp1928
I215
aI197
aI1
aa(lp1929
I562
aI196
aI1
aa(lp1930
I435
aI196
aI1
aa(lp1931
I431
aI196
aI1
aa(lp1932
I428
aI196
aI1
aa(lp1933
I426
aI196
aI1
aa(lp1934
I424
aI196
aI1
aa(lp1935
I423
aI196
aI1
aa(lp1936
I421
aI196
aI1
aa(lp1937
I419
aI196
aI1
aa(lp1938
I418
aI196
aI1
aa(lp1939
I416
aI196
aI1
aa(lp1940
I414
aI196
aI1
aa(lp1941
I413
aI196
aI1
aa(lp1942
I411
aI196
aI1
aa(lp1943
I409
aI196
aI1
aa(lp1944
I408
aI196
aI1
aa(lp1945
I171
aI196
aI1
aa(lp1946
I1116
aI194
aI1
aa(lp1947
I387
aI194
aI1
aa(lp1948
I1237
aI193
aI1
aa(lp1949
I1119
aI193
aI1
aa(lp1950
I1115
aI193
aI1
aa(lp1951
I189
aI193
aI1
aa(lp1952
I1220
aI192
aI1
aa(lp1953
I1127
aI192
aI1
aa(lp1954
I1122
aI192
aI1
aa(lp1955
I1023
aI192
aI1
aa(lp1956
I172
aI192
aI1
aa(lp1957
I1134
aI191
aI1
aa(lp1958
I1132
aI191
aI1
aa(lp1959
I1129
aI191
aI1
aa(lp1960
I483
aI191
aI1
aa(lp1961
I1136
aI190
aI1
aa(lp1962
I483
aI190
aI1
aa(lp1963
I142
aI190
aI1
aa(lp1964
I1231
aI189
aI1
aa(lp1965
I1139
aI189
aI1
aa(lp1966
I1137
aI189
aI1
aa(lp1967
I1123
aI189
aI1
aa(lp1968
I762
aI189
aI1
aa(lp1969
I225
aI189
aI1
aa(lp1970
I220
aI189
aI1
aa(lp1971
I214
aI189
aI1
aa(lp1972
I206
aI189
aI1
aa(lp1973
I200
aI189
aI1
aa(lp1974
I1238
aI188
aI1
aa(lp1975
I1145
aI188
aI1
aa(lp1976
I1142
aI188
aI1
aa(lp1977
I484
aI188
aI1
aa(lp1978
I329
aI188
aI1
aa(lp1979
I229
aI188
aI1
aa(lp1980
I204
aI188
aI1
aa(lp1981
I566
aI187
aI1
aa(lp1982
I282
aI187
aI1
aa(lp1983
I262
aI187
aI1
aa(lp1984
I246
aI187
aI1
aa(lp1985
I238
aI187
aI1
aa(lp1986
I233
aI187
aI1
aa(lp1987
I196
aI187
aI1
aa(lp1988
I175
aI187
aI1
aa(lp1989
I1239
aI186
aI1
aa(lp1990
I1149
aI186
aI1
aa(lp1991
I485
aI186
aI1
aa(lp1992
I194
aI186
aI1
aa(lp1993
I1239
aI185
aI1
aa(lp1994
I1238
aI185
aI1
aa(lp1995
I1153
aI185
aI1
aa(lp1996
I1128
aI185
aI1
aa(lp1997
I1044
aI185
aI1
aa(lp1998
I567
aI185
aI1
aa(lp1999
I297
aI185
aI1
aa(lp2000
I1239
aI184
aI1
aa(lp2001
I192
aI184
aI1
aa(lp2002
I191
aI184
aI1
aa(lp2003
I144
aI184
aI1
aa(lp2004
I486
aI183
aI1
aa(lp2005
I318
aI183
aI1
aa(lp2006
I190
aI183
aI1
aa(lp2007
I348
aI182
aI1
aa(lp2008
I285
aI182
aI1
aa(lp2009
I188
aI182
aI1
aa(lp2010
I487
aI181
aI1
aa(lp2011
I176
aI181
aI1
aa(lp2012
I1158
aI180
aI1
aa(lp2013
I1157
aI180
aI1
aa(lp2014
I371
aI180
aI1
aa(lp2015
I213
aI180
aI1
aa(lp2016
I186
aI180
aI1
aa(lp2017
I178
aI180
aI1
aa(lp2018
I489
aI179
aI1
aa(lp2019
I184
aI179
aI1
aa(lp2020
I178
aI179
aI1
aa(lp2021
I1161
aI178
aI1
aa(lp2022
I1132
aI178
aI1
aa(lp2023
I182
aI178
aI1
aa(lp2024
I178
aI178
aI1
aa(lp2025
I490
aI177
aI1
aa(lp2026
I256
aI177
aI1
aa(lp2027
I240
aI177
aI1
aa(lp2028
I181
aI177
aI1
aa(lp2029
I180
aI177
aI1
aa(lp2030
I179
aI177
aI1
aa(lp2031
I1277
aI176
aI1
aa(lp2032
I367
aI176
aI1
aa(lp2033
I493
aI175
aI1
aa(lp2034
I492
aI175
aI1
aa(lp2035
I984
aI174
aI1
aa(lp2036
I495
aI174
aI1
aa(lp2037
I494
aI174
aI1
aa(lp2038
I222
aI174
aI1
aa(lp2039
I147
aI174
aI1
aa(lp2040
I1167
aI173
aI1
aa(lp2041
I1061
aI173
aI1
aa(lp2042
I1136
aI172
aI1
aa(lp2043
I499
aI172
aI1
aa(lp2044
I497
aI172
aI1
aa(lp2045
I201
aI172
aI1
aa(lp2046
I398
aI171
aI1
aa(lp2047
I392
aI171
aI1
aa(lp2048
I562
aI170
aI1
aa(lp2049
I165
aI170
aI1
aa(lp2050
I1139
aI169
aI1
aa(lp2051
I347
aI169
aI1
aa(lp2052
I124
aI169
aI1
aa(lp2053
I1178
aI168
aI1
aa(lp2054
I503
aI168
aI1
aa(lp2055
I99
aI167
aI1
aa(lp2056
I1143
aI165
aI1
aa(lp2057
I1142
aI165
aI1
aa(lp2058
I408
aI165
aI1
aa(lp2059
I66
aI165
aI1
aa(lp2060
I509
aI164
aI1
aa(lp2061
I228
aI164
aI1
aa(lp2062
I49
aI164
aI1
aa(lp2063
I416
aI162
aI1
aa(lp2064
I307
aI162
aI1
aa(lp2065
I38
aI162
aI1
aa(lp2066
I1106
aI161
aI1
aa(lp2067
I496
aI161
aI1
aa(lp2068
I1191
aI160
aI1
aa(lp2069
I425
aI160
aI1
aa(lp2070
I150
aI160
aI1
aa(lp2071
I951
aI158
aI1
aa(lp2072
I1058
aI157
aI1
aa(lp2073
I433
aI157
aI1
aa(lp2074
I23
aI156
aI1
aa(lp2075
I515
aI155
aI1
aa(lp2076
I440
aI155
aI1
aa(lp2077
I286
aI155
aI1
aa(lp2078
I1284
aI154
aI1
aa(lp2079
I233
aI154
aI1
aa(lp2080
I214
aI154
aI1
aa(lp2081
I23
aI154
aI1
aa(lp2082
I22
aI154
aI1
aa(lp2083
I22
aI153
aI1
aa(lp2084
I560
aI152
aI1
aa(lp2085
I22
aI151
aI1
aa(lp2086
I1088
aI150
aI1
aa(lp2087
I921
aI150
aI1
aa(lp2088
I256
aI150
aI1
aa(lp2089
I215
aI150
aI1
aa(lp2090
I21
aI150
aI1
aa(lp2091
I21
aI149
aI1
aa(lp2092
I20
aI148
aI1
aa(lp2093
I790
aI147
aI1
aa(lp2094
I444
aI147
aI1
aa(lp2095
I443
aI147
aI1
aa(lp2096
I1202
aI146
aI1
aa(lp2097
I449
aI146
aI1
aa(lp2098
I447
aI146
aI1
aa(lp2099
I238
aI146
aI1
aa(lp2100
I19
aI146
aI1
aa(lp2101
I458
aI145
aI1
aa(lp2102
I152
aI145
aI1
aa(lp2103
I18
aI145
aI1
aa(lp2104
I485
aI144
aI1
aa(lp2105
I17
aI144
aI1
aa(lp2106
I772
aI143
aI1
aa(lp2107
I642
aI143
aI1
aa(lp2108
I561
aI143
aI1
aa(lp2109
I16
aI143
aI1
aa(lp2110
I520
aI142
aI1
aa(lp2111
I356
aI142
aI1
aa(lp2112
I228
aI141
aI1
aa(lp2113
I14
aI141
aI1
aa(lp2114
I733
aI140
aI1
aa(lp2115
I247
aI140
aI1
aa(lp2116
I555
aI139
aI1
aa(lp2117
I262
aI139
aI1
aa(lp2118
I260
aI139
aI1
aa(lp2119
I254
aI139
aI1
aa(lp2120
I153
aI139
aI1
aa(lp2121
I14
aI137
aI1
aa(lp2122
I1289
aI136
aI1
aa(lp2123
I1104
aI136
aI1
aa(lp2124
I155
aI136
aI1
aa(lp2125
I552
aI135
aI1
aa(lp2126
I524
aI135
aI1
aa(lp2127
I1040
aI134
aI1
aa(lp2128
I155
aI134
aI1
aa(lp2129
I14
aI134
aI1
aa(lp2130
I198
aI133
aI1
aa(lp2131
I156
aI133
aI1
aa(lp2132
I551
aI132
aI1
aa(lp2133
I641
aI131
aI1
aa(lp2134
I549
aI131
aI1
aa(lp2135
I528
aI131
aI1
aa(lp2136
I216
aI131
aI1
aa(lp2137
I548
aI130
aI1
aa(lp2138
I547
aI130
aI1
aa(lp2139
I158
aI130
aI1
aa(lp2140
I530
aI129
aI1
aa(lp2141
I545
aI128
aI1
aa(lp2142
I543
aI128
aI1
aa(lp2143
I542
aI128
aI1
aa(lp2144
I540
aI128
aI1
aa(lp2145
I538
aI128
aI1
aa(lp2146
I535
aI128
aI1
aa(lp2147
I533
aI128
aI1
aa(lp2148
I244
aI127
aI1
aa(lp2149
I159
aI127
aI1
aa(lp2150
I14
aI125
aI1
aa(lp2151
I33
aI124
aI1
aa(lp2152
I1115
aI123
aI1
aa(lp2153
I207
aI123
aI1
aa(lp2154
I160
aI122
aI1
aa(lp2155
I1210
aI121
aI1
aa(lp2156
I1295
aI119
aI1
aa(lp2157
I198
aI119
aI1
aa(lp2158
I459
aI117
aI1
aa(lp2159
I190
aI117
aI1
aa(lp2160
I170
aI117
aI1
aa(lp2161
I848
aI115
aI1
aa(lp2162
I178
aI115
aI1
aa(lp2163
I47
aI114
aI1
aa(lp2164
I1092
aI113
aI1
aa(lp2165
I169
aI113
aI1
aa(lp2166
I1016
aI112
aI1
aa(lp2167
I14
aI112
aI1
aa(lp2168
I164
aI111
aI1
aa(lp2169
I162
aI111
aI1
aa(lp2170
I161
aI111
aI1
aa(lp2171
I1217
aI105
aI1
aa(lp2172
I1155
aI105
aI1
aa(lp2173
I1126
aI105
aI1
aa(lp2174
I1155
aI104
aI1
aa(lp2175
I1158
aI103
aI1
aa(lp2176
I1151
aI103
aI1
aa(lp2177
I1139
aI100
aI1
aa(lp2178
I228
aI100
aI1
aa(lp2179
I1132
aI98
aI1
aa(lp2180
I298
aI98
aI1
aa(lp2181
I1225
aI96
aI1
aa(lp2182
I1111
aI96
aI1
aa(lp2183
I927
aI95
aI1
aa(lp2184
I13
aI95
aI1
aa(lp2185
I1096
aI93
aI1
aa(lp2186
I1068
aI93
aI1
aa(lp2187
I1026
aI93
aI1
aa(lp2188
I996
aI93
aI1
aa(lp2189
I760
aI91
aI1
aa(lp2190
I132
aI90
aI1
aa(lp2191
I436
aI89
aI1
aa(lp2192
I1175
aI85
aI1
aa(lp2193
I1172
aI85
aI1
aa(lp2194
I1302
aI83
aI1
aa(lp2195
I1238
aI83
aI1
aa(lp2196
I1139
aI82
aI1
aa(lp2197
I1189
aI81
aI1
aa(lp2198
I1196
aI78
aI1
aa(lp2199
I1195
aI78
aI1
aa(lp2200
I1194
aI78
aI1
aa(lp2201
I1193
aI78
aI1
aa(lp2202
I1189
aI78
aI1
aa(lp2203
I273
aI78
aI1
aa(lp2204
I1185
aI77
aI1
aa(lp2205
I1183
aI77
aI1
aa(lp2206
I11
aI77
aI1
aa(lp2207
I1147
aI76
aI1
aa(lp2208
I1179
aI75
aI1
aa(lp2209
I1177
aI75
aI1
aa(lp2210
I1170
aI75
aI1
aa(lp2211
I208
aI75
aI1
aa(lp2212
I1162
aI74
aI1
aa(lp2213
I1158
aI74
aI1
aa(lp2214
I1154
aI74
aI1
aa(lp2215
I1152
aI74
aI1
aa(lp2216
I1151
aI74
aI1
aa(lp2217
I1149
aI74
aI1
aa(lp2218
I1148
aI74
aI1
aa(lp2219
I427
aI73
aI1
aa(lp2220
I425
aI73
aI1
aa(lp2221
I103
aI72
aI1
aa(lp2222
I1249
aI70
aI1
aa(lp2223
I0
aI68
aI1
aa(lp2224
I406
aI67
aI1
aa(lp2225
I110
aI67
aI1
aa(lp2226
I238
aI66
aI1
aa(lp2227
I1316
aI63
aI1
aa(lp2228
I187
aI63
aI1
aa(lp2229
I1255
aI62
aI1
aa(lp2230
I1259
aI59
aI1
aa(lp2231
I219
aI59
aI1
aa(lp2232
I1260
aI58
aI1
aa(lp2233
I1263
aI56
aI1
aa(lp2234
I1210
aI54
aI1
aa(lp2235
I81
aI54
aI1
aa(lp2236
I10
aI53
aI1
aa(lp2237
I1073
aI52
aI1
aa(lp2238
I1268
aI51
aI1
aa(lp2239
I1333
aI50
aI1
aa(lp2240
I1279
aI46
aI1
aa(lp2241
I257
aI45
aI1
aa(lp2242
I223
aI45
aI1
aa(lp2243
I163
aI44
aI1
aa(lp2244
I55
aI44
aI1
aa(lp2245
I320
aI43
aI1
aa(lp2246
I197
aI43
aI1
aa(lp2247
I382
aI39
aI1
aa(lp2248
I190
aI39
aI1
aa(lp2249
I1343
aI38
aI1
aa(lp2250
I189
aI38
aI1
aa(lp2251
I1300
aI37
aI1
aa(lp2252
I187
aI37
aI1
aa(lp2253
I184
aI37
aI1
aa(lp2254
I180
aI36
aI1
aa(lp2255
I177
aI36
aI1
aa(lp2256
I175
aI35
aI1
aa(lp2257
I174
aI35
aI1
aa(lp2258
I175
aI33
aI1
aa(lp2259
I173
aI33
aI1
aa(lp2260
I171
aI33
aI1
aa(lp2261
I170
aI32
aI1
aa(lp2262
I166
aI30
aI1
aa(lp2263
I40
aI30
aI1
aa(lp2264
I153
aI28
aI1
aa(lp2265
I719
aI27
aI1
aa(lp2266
I458
aI27
aI1
aa(lp2267
I154
aI27
aI1
aa(lp2268
I162
aI25
aI1
aa(lp2269
I147
aI25
aI1
aa(lp2270
I468
aI24
aI1
aa(lp2271
I1317
aI23
aI1
aa(lp2272
I290
aI23
aI1
aa(lp2273
I156
aI23
aI1
aa(lp2274
I150
aI22
aI1
aa(lp2275
I140
aI21
aI1
aa(lp2276
I5
aI21
aI1
aa(lp2277
I1352
aI20
aI1
aa(lp2278
I129
aI18
aI1
aa(lp2279
I116
aI17
aI1
aa(lp2280
I107
aI15
aI1
aa(lp2281
I29
aI15
aI1
aa(lp2282
I104
aI12
aI1
aa(lp2283
I102
aI12
aI1
aa(lp2284
I1325
aI10
aI1
aa(lp2285
I503
aI10
aI1
aa(lp2286
I1357
aI8
aI1
aa(lp2287
I1
aI8
aI1
aa(lp2288
I1329
aI5
aI1
aa(lp2289
I15
aI5
aI1
aa(lp2290
I1360
aI3
aI1
aa(lp2291
I0
aI3
aI1
aa(lp2292
I1333
aI2
aI1
aa(lp2293
I533
aI2
aI1
aa(lp2294
I5
aI2
aI1
aa(lp2295
I1349
aI1
aI1
aa(lp2296
I1347
aI1
aI1
aa(lp2297
I1343
aI1
aI1
aa(lp2298
I1340
aI1
aI1
aa(lp2299
I1337
aI1
aI1
aa(lp2300
I1359
aI0
aI1
aa(lp2301
I1347
aI0
aI1
aa(lp2302
I1316
aI0
aI1
aa(lp2303
I1299
aI0
aI1
aa(lp2304
I1281
aI0
aI1
aa(lp2305
I1269
aI0
aI1
aa(lp2306
I1247
aI0
aI1
aa(lp2307
I1195
aI0
aI1
aa(lp2308
I1148
aI0
aI1
aa(lp2309
I1116
aI0
aI1
aa(lp2310
I673
aI0
aI1
aa(lp2311
I646
aI0
aI1
aa(lp2312
I621
aI0
aI1
aa(lp2313
I598
aI0
aI1
aa(lp2314
I568
aI0
aI1
aa(lp2315
I550
aI0
aI1
aa(lp2316
I545
aI0
aI1
aa(lp2317
I543
aI0
aI1
aa(lp2318
I542
aI0
aI1
aa(lp2319
I538
aI0
aI1
aa(lp2320
I207
aI0
aI1
aa(lp2321
I120
aI0
aI1
aa(lp2322
I84
aI0
aI1
aa(lp2323
I8
aI0
aI1
aa(lp2324
I5
aI0
aI1
aa.