(lp0
(lp1
S'imposter'
p2
aS'Thu Apr 20 10:38:18 2017'
p3
aS'mouse'
p4
aa(lp5
I0
aI203
aI417
aa(lp6
I0
aI208
aI418
aa(lp7
I0
aI212
aI420
aa(lp8
I0
aI214
aI421
aa(lp9
I0
aI215
aI421
aa(lp10
I0
aI214
aI421
aa(lp11
I0
aI213
aI420
aa(lp12
I0
aI208
aI419
aa(lp13
I0
aI197
aI415
aa(lp14
I0
aI170
aI409
aa(lp15
I0
aI148
aI400
aa(lp16
I0
aI127
aI384
aa(lp17
I0
aI79
aI365
aa(lp18
I0
aI47
aI352
aa(lp19
I0
aI0
aI341
aa(lp20
I0
aI0
aI334
aa(lp21
I0
aI0
aI330
aa(lp22
I0
aI0
aI328
aa(lp23
I0
aI0
aI328
aa(lp24
I0
aI0
aI330
aa(lp25
I0
aI0
aI337
aa(lp26
I0
aI0
aI345
aa(lp27
I0
aI0
aI359
aa(lp28
I0
aI0
aI386
aa(lp29
I0
aI0
aI408
aa(lp30
I0
aI0
aI422
aa(lp31
I0
aI0
aI432
aa(lp32
I0
aI0
aI444
aa(lp33
I0
aI0
aI464
aa(lp34
I0
aI0
aI478
aa(lp35
I0
aI0
aI487
aa(lp36
I0
aI0
aI492
aa(lp37
I0
aI0
aI495
aa(lp38
I0
aI0
aI496
aa(lp39
I0
aI0
aI497
aa(lp40
I0
aI0
aI498
aa(lp41
I0
aI0
aI498
aa(lp42
I0
aI0
aI498
aa(lp43
I0
aI0
aI499
aa(lp44
I0
aI0
aI499
aa(lp45
I0
aI1
aI499
aa(lp46
I0
aI1
aI499
aa(lp47
I0
aI2
aI499
aa(lp48
I0
aI3
aI499
aa(lp49
I0
aI4
aI499
aa(lp50
I0
aI4
aI499
aa(lp51
I0
aI6
aI499
aa(lp52
I0
aI28
aI498
aa(lp53
I0
aI52
aI498
aa(lp54
I0
aI66
aI498
aa(lp55
I0
aI76
aI498
aa(lp56
I0
aI78
aI498
aa(lp57
I0
aI79
aI497
aa(lp58
I0
aI82
aI497
aa(lp59
I0
aI93
aI496
aa(lp60
I0
aI107
aI496
aa(lp61
I0
aI136
aI496
aa(lp62
I0
aI151
aI496
aa(lp63
I0
aI159
aI495
aa(lp64
I0
aI166
aI494
aa(lp65
I0
aI164
aI499
aa(lp66
I0
aI163
aI502
aa(lp67
I0
aI160
aI506
aa(lp68
I0
aI159
aI511
aa(lp69
I0
aI158
aI518
aa(lp70
I0
aI155
aI534
aa(lp71
I0
aI150
aI565
aa(lp72
I0
aI145
aI583
aa(lp73
I0
aI139
aI603
aa(lp74
I0
aI139
aI601
aa(lp75
I0
aI143
aI599
aa(lp76
I0
aI145
aI599
aa(lp77
I0
aI150
aI597
aa(lp78
I0
aI154
aI597
aa(lp79
I0
aI157
aI595
aa(lp80
I0
aI160
aI593
aa(lp81
I0
aI162
aI591
aa(lp82
I0
aI166
aI589
aa(lp83
I0
aI170
aI586
aa(lp84
I1
aI170
aI586
aa(lp85
I0
aI173
aI585
aa(lp86
I0
aI176
aI583
aa(lp87
I0
aI179
aI579
aa(lp88
I0
aI184
aI572
aa(lp89
I0
aI191
aI567
aa(lp90
I0
aI202
aI564
aa(lp91
I0
aI215
aI561
aa(lp92
I0
aI222
aI559
aa(lp93
I0
aI224
aI558
aa(lp94
I0
aI225
aI556
aa(lp95
I0
aI227
aI555
aa(lp96
I0
aI229
aI554
aa(lp97
I0
aI231
aI552
aa(lp98
I0
aI234
aI549
aa(lp99
I0
aI240
aI545
aa(lp100
I0
aI248
aI541
aa(lp101
I0
aI252
aI538
aa(lp102
I0
aI256
aI537
aa(lp103
I0
aI257
aI537
aa(lp104
I0
aI258
aI537
aa(lp105
I0
aI260
aI537
aa(lp106
I0
aI261
aI537
aa(lp107
I0
aI261
aI537
aa(lp108
I0
aI261
aI538
aa(lp109
I0
aI261
aI538
aa(lp110
I0
aI261
aI540
aa(lp111
I0
aI261
aI541
aa(lp112
I0
aI261
aI541
aa(lp113
I0
aI261
aI543
aa(lp114
I0
aI261
aI545
aa(lp115
I0
aI261
aI545
aa(lp116
I0
aI261
aI546
aa(lp117
I0
aI261
aI547
aa(lp118
I0
aI260
aI549
aa(lp119
I0
aI260
aI552
aa(lp120
I0
aI260
aI554
aa(lp121
I0
aI260
aI557
aa(lp122
I0
aI260
aI563
aa(lp123
I0
aI260
aI576
aa(lp124
I0
aI260
aI585
aa(lp125
I0
aI258
aI591
aa(lp126
I0
aI257
aI595
aa(lp127
I0
aI256
aI599
aa(lp128
I0
aI253
aI608
aa(lp129
I0
aI248
aI623
aa(lp130
I0
aI241
aI634
aa(lp131
I0
aI235
aI640
aa(lp132
I0
aI231
aI647
aa(lp133
I0
aI227
aI655
aa(lp134
I0
aI223
aI664
aa(lp135
I0
aI219
aI675
aa(lp136
I0
aI215
aI682
aa(lp137
I0
aI210
aI686
aa(lp138
I0
aI207
aI686
aa(lp139
I0
aI202
aI686
aa(lp140
I0
aI186
aI686
aa(lp141
I0
aI169
aI682
aa(lp142
I0
aI157
aI679
aa(lp143
I0
aI141
aI674
aa(lp144
I0
aI127
aI665
aa(lp145
I0
aI114
aI655
aa(lp146
I0
aI106
aI649
aa(lp147
I0
aI98
aI642
aa(lp148
I0
aI85
aI634
aa(lp149
I0
aI61
aI623
aa(lp150
I0
aI45
aI604
aa(lp151
I0
aI45
aI605
aa(lp152
I0
aI43
aI603
aa(lp153
I0
aI39
aI599
aa(lp154
I0
aI29
aI592
aa(lp155
I0
aI12
aI580
aa(lp156
I0
aI0
aI564
aa(lp157
I0
aI0
aI553
aa(lp158
I0
aI0
aI544
aa(lp159
I0
aI0
aI537
aa(lp160
I0
aI0
aI529
aa(lp161
I0
aI0
aI518
aa(lp162
I0
aI0
aI505
aa(lp163
I0
aI0
aI494
aa(lp164
I0
aI0
aI487
aa(lp165
I0
aI0
aI485
aa(lp166
I0
aI0
aI482
aa(lp167
I0
aI0
aI482
aa(lp168
I0
aI0
aI478
aa(lp169
I0
aI9
aI483
aa(lp170
I0
aI35
aI491
aa(lp171
I0
aI49
aI497
aa(lp172
I0
aI51
aI496
aa(lp173
I0
aI52
aI494
aa(lp174
I0
aI53
aI488
aa(lp175
I0
aI53
aI472
aa(lp176
I0
aI50
aI405
aa(lp177
I0
aI6
aI270
aa(lp178
I0
aI0
aI125
aa(lp179
I0
aI0
aI0
aa(lp180
I0
aI0
aI0
aa(lp181
I0
aI0
aI0
aa(lp182
I0
aI0
aI0
aa(lp183
I0
aI0
aI0
aa(lp184
I0
aI0
aI0
aa(lp185
I0
aI1
aI0
aa(lp186
I0
aI9
aI1
aa(lp187
I0
aI24
aI3
aa(lp188
I0
aI36
aI7
aa(lp189
I0
aI48
aI12
aa(lp190
I0
aI75
aI23
aa(lp191
I0
aI98
aI47
aa(lp192
I0
aI124
aI61
aa(lp193
I0
aI169
aI72
aa(lp194
I0
aI197
aI86
aa(lp195
I0
aI249
aI106
aa(lp196
I0
aI273
aI126
aa(lp197
I0
aI302
aI139
aa(lp198
I0
aI351
aI146
aa(lp199
I0
aI381
aI157
aa(lp200
I0
aI436
aI168
aa(lp201
I0
aI463
aI187
aa(lp202
I0
aI523
aI216
aa(lp203
I0
aI568
aI236
aa(lp204
I0
aI641
aI254
aa(lp205
I0
aI674
aI282
aa(lp206
I0
aI713
aI318
aa(lp207
I0
aI754
aI334
aa(lp208
I0
aI764
aI341
aa(lp209
I0
aI764
aI342
aa(lp210
I0
aI764
aI344
aa(lp211
I0
aI764
aI345
aa(lp212
I0
aI764
aI347
aa(lp213
I0
aI766
aI353
aa(lp214
I0
aI776
aI375
aa(lp215
I0
aI796
aI393
aa(lp216
I0
aI810
aI405
aa(lp217
I0
aI822
aI427
aa(lp218
I0
aI837
aI458
aa(lp219
I0
aI863
aI475
aa(lp220
I0
aI892
aI492
aa(lp221
I0
aI911
aI524
aa(lp222
I0
aI932
aI558
aa(lp223
I0
aI965
aI572
aa(lp224
I0
aI998
aI588
aa(lp225
I0
aI1009
aI603
aa(lp226
I0
aI1010
aI604
aa(lp227
I0
aI1010
aI604
aa(lp228
I0
aI1009
aI605
aa(lp229
I0
aI1006
aI605
aa(lp230
I0
aI1000
aI605
aa(lp231
I0
aI993
aI603
aa(lp232
I0
aI983
aI598
aa(lp233
I0
aI968
aI591
aa(lp234
I0
aI969
aI591
aa(lp235
I1
aI969
aI591
aa(lp236
I0
aI963
aI587
aa(lp237
I0
aI946
aI582
aa(lp238
I0
aI905
aI573
aa(lp239
I0
aI887
aI566
aa(lp240
I0
aI872
aI560
aa(lp241
I0
aI838
aI550
aa(lp242
I0
aI817
aI538
aa(lp243
I0
aI801
aI526
aa(lp244
I0
aI762
aI514
aa(lp245
I0
aI736
aI509
aa(lp246
I0
aI713
aI503
aa(lp247
I0
aI671
aI498
aa(lp248
I0
aI648
aI494
aa(lp249
I0
aI616
aI490
aa(lp250
I0
aI581
aI486
aa(lp251
I0
aI557
aI483
aa(lp252
I0
aI512
aI478
aa(lp253
I0
aI483
aI478
aa(lp254
I0
aI444
aI476
aa(lp255
I0
aI407
aI472
aa(lp256
I0
aI363
aI472
aa(lp257
I0
aI364
aI472
aa(lp258
I0
aI364
aI472
aa(lp259
I0
aI365
aI473
aa(lp260
I0
aI368
aI473
aa(lp261
I0
aI372
aI471
aa(lp262
I0
aI376
aI471
aa(lp263
I0
aI382
aI469
aa(lp264
I0
aI396
aI469
aa(lp265
I0
aI408
aI467
aa(lp266
I0
aI417
aI467
aa(lp267
I0
aI426
aI467
aa(lp268
I0
aI443
aI467
aa(lp269
I0
aI454
aI467
aa(lp270
I0
aI461
aI467
aa(lp271
I0
aI471
aI467
aa(lp272
I0
aI487
aI468
aa(lp273
I0
aI497
aI468
aa(lp274
I0
aI503
aI470
aa(lp275
I0
aI510
aI472
aa(lp276
I0
aI518
aI475
aa(lp277
I0
aI535
aI480
aa(lp278
I0
aI548
aI487
aa(lp279
I0
aI556
aI498
aa(lp280
I0
aI566
aI507
aa(lp281
I0
aI584
aI515
aa(lp282
I0
aI602
aI520
aa(lp283
I0
aI611
aI526
aa(lp284
I0
aI619
aI534
aa(lp285
I0
aI632
aI547
aa(lp286
I0
aI654
aI564
aa(lp287
I0
aI669
aI574
aa(lp288
I0
aI682
aI584
aa(lp289
I0
aI696
aI592
aa(lp290
I0
aI721
aI605
aa(lp291
I0
aI740
aI627
aa(lp292
I0
aI752
aI640
aa(lp293
I0
aI761
aI646
aa(lp294
I0
aI767
aI649
aa(lp295
I0
aI770
aI649
aa(lp296
I0
aI770
aI649
aa(lp297
I0
aI771
aI649
aa(lp298
I0
aI773
aI649
aa(lp299
I0
aI776
aI647
aa(lp300
I0
aI783
aI646
aa(lp301
I0
aI787
aI643
aa(lp302
I0
aI789
aI639
aa(lp303
I0
aI793
aI632
aa(lp304
I0
aI799
aI626
aa(lp305
I0
aI807
aI621
aa(lp306
I0
aI815
aI617
aa(lp307
I0
aI824
aI613
aa(lp308
I0
aI830
aI609
aa(lp309
I0
aI834
aI602
aa(lp310
I0
aI837
aI589
aa(lp311
I0
aI841
aI577
aa(lp312
I0
aI847
aI572
aa(lp313
I0
aI851
aI567
aa(lp314
I0
aI856
aI564
aa(lp315
I0
aI861
aI554
aa(lp316
I0
aI863
aI538
aa(lp317
I0
aI866
aI522
aa(lp318
I0
aI866
aI521
aa(lp319
I0
aI866
aI521
aa(lp320
I0
aI866
aI521
aa(lp321
I0
aI866
aI520
aa(lp322
I0
aI867
aI519
aa(lp323
I0
aI879
aI516
aa(lp324
I0
aI887
aI512
aa(lp325
I0
aI893
aI507
aa(lp326
I0
aI898
aI502
aa(lp327
I0
aI905
aI496
aa(lp328
I0
aI912
aI491
aa(lp329
I0
aI923
aI488
aa(lp330
I0
aI932
aI484
aa(lp331
I0
aI938
aI482
aa(lp332
I0
aI942
aI479
aa(lp333
I0
aI945
aI477
aa(lp334
I0
aI948
aI476
aa(lp335
I0
aI953
aI474
aa(lp336
I0
aI959
aI474
aa(lp337
I0
aI969
aI474
aa(lp338
I0
aI976
aI474
aa(lp339
I0
aI983
aI474
aa(lp340
I0
aI992
aI474
aa(lp341
I0
aI1012
aI476
aa(lp342
I0
aI1028
aI479
aa(lp343
I0
aI1042
aI485
aa(lp344
I0
aI1068
aI492
aa(lp345
I0
aI1083
aI502
aa(lp346
I0
aI1091
aI503
aa(lp347
I0
aI1097
aI505
aa(lp348
I0
aI1106
aI507
aa(lp349
I0
aI1120
aI512
aa(lp350
I0
aI1132
aI519
aa(lp351
I0
aI1141
aI526
aa(lp352
I0
aI1153
aI536
aa(lp353
I0
aI1171
aI555
aa(lp354
I0
aI1187
aI581
aa(lp355
I0
aI1191
aI595
aa(lp356
I0
aI1191
aI606
aa(lp357
I0
aI1190
aI620
aa(lp358
I0
aI1167
aI650
aa(lp359
I0
aI1074
aI645
aa(lp360
I0
aI1031
aI639
aa(lp361
I0
aI938
aI631
aa(lp362
I0
aI849
aI622
aa(lp363
I0
aI770
aI611
aa(lp364
I0
aI686
aI599
aa(lp365
I0
aI627
aI583
aa(lp366
I0
aI548
aI568
aa(lp367
I0
aI503
aI551
aa(lp368
I0
aI440
aI538
aa(lp369
I0
aI412
aI533
aa(lp370
I0
aI404
aI531
aa(lp371
I0
aI381
aI526
aa(lp372
I0
aI361
aI522
aa(lp373
I0
aI353
aI517
aa(lp374
I0
aI349
aI512
aa(lp375
I0
aI336
aI505
aa(lp376
I0
aI311
aI495
aa(lp377
I0
aI296
aI489
aa(lp378
I0
aI284
aI484
aa(lp379
I0
aI265
aI479
aa(lp380
I0
aI240
aI475
aa(lp381
I0
aI226
aI471
aa(lp382
I0
aI217
aI468
aa(lp383
I0
aI206
aI466
aa(lp384
I0
aI189
aI463
aa(lp385
I0
aI179
aI459
aa(lp386
I0
aI174
aI456
aa(lp387
I0
aI167
aI451
aa(lp388
I0
aI150
aI446
aa(lp389
I0
aI134
aI440
aa(lp390
I0
aI123
aI437
aa(lp391
I0
aI114
aI435
aa(lp392
I0
aI102
aI433
aa(lp393
I0
aI85
aI430
aa(lp394
I0
aI75
aI429
aa(lp395
I0
aI69
aI427
aa(lp396
I0
aI62
aI424
aa(lp397
I0
aI53
aI422
aa(lp398
I0
aI36
aI418
aa(lp399
I0
aI27
aI413
aa(lp400
I0
aI22
aI409
aa(lp401
I0
aI16
aI406
aa(lp402
I0
aI11
aI403
aa(lp403
I0
aI4
aI401
aa(lp404
I0
aI0
aI399
aa(lp405
I0
aI0
aI398
aa(lp406
I0
aI0
aI395
aa(lp407
I0
aI3
aI395
aa(lp408
I0
aI8
aI395
aa(lp409
I0
aI15
aI396
aa(lp410
I0
aI22
aI397
aa(lp411
I0
aI40
aI398
aa(lp412
I0
aI55
aI399
aa(lp413
I0
aI67
aI402
aa(lp414
I0
aI88
aI402
aa(lp415
I0
aI108
aI402
aa(lp416
I0
aI119
aI403
aa(lp417
I0
aI135
aI403
aa(lp418
I0
aI157
aI401
aa(lp419
I0
aI169
aI399
aa(lp420
I0
aI177
aI397
aa(lp421
I0
aI194
aI393
aa(lp422
I0
aI221
aI392
aa(lp423
I0
aI236
aI390
aa(lp424
I0
aI259
aI389
aa(lp425
I0
aI279
aI388
aa(lp426
I0
aI288
aI387
aa(lp427
I0
aI295
aI386
aa(lp428
I0
aI305
aI386
aa(lp429
I0
aI324
aI387
aa(lp430
I0
aI339
aI389
aa(lp431
I0
aI349
aI390
aa(lp432
I0
aI364
aI390
aa(lp433
I0
aI373
aI389
aa(lp434
I0
aI385
aI392
aa(lp435
I0
aI391
aI392
aa(lp436
I0
aI396
aI393
aa(lp437
I0
aI400
aI395
aa(lp438
I0
aI401
aI396
aa(lp439
I0
aI401
aI396
aa(lp440
I0
aI401
aI396
aa(lp441
I0
aI402
aI398
aa(lp442
I0
aI402
aI398
aa(lp443
I0
aI402
aI398
aa(lp444
I0
aI401
aI398
aa(lp445
I0
aI400
aI397
aa(lp446
I0
aI397
aI394
aa(lp447
I0
aI391
aI393
aa(lp448
I0
aI376
aI393
aa(lp449
I0
aI359
aI395
aa(lp450
I0
aI344
aI410
aa(lp451
I0
aI318
aI434
aa(lp452
I0
aI280
aI453
aa(lp453
I0
aI260
aI474
aa(lp454
I0
aI242
aI508
aa(lp455
I0
aI200
aI544
aa(lp456
I0
aI157
aI560
aa(lp457
I0
aI126
aI576
aa(lp458
I0
aI77
aI587
aa(lp459
I0
aI48
aI604
aa(lp460
I0
aI25
aI617
aa(lp461
I0
aI0
aI622
aa(lp462
I0
aI0
aI625
aa(lp463
I0
aI0
aI624
aa(lp464
I0
aI0
aI618
aa(lp465
I0
aI0
aI613
aa(lp466
I0
aI0
aI606
aa(lp467
I0
aI0
aI581
aa(lp468
I0
aI0
aI573
aa(lp469
I0
aI0
aI536
aa(lp470
I0
aI0
aI475
aa(lp471
I0
aI0
aI444
aa(lp472
I0
aI0
aI419
aa(lp473
I0
aI533
aI767
aa(lp474
I0
aI508
aI742
aa(lp475
I0
aI488
aI738
aa(lp476
I0
aI487
aI729
aa(lp477
I0
aI481
aI710
aa(lp478
I0
aI475
aI692
aa(lp479
I0
aI475
aI691
aa(lp480
I0
aI475
aI691
aa(lp481
I0
aI474
aI691
aa(lp482
I0
aI442
aI658
aa(lp483
I0
aI418
aI640
aa(lp484
I0
aI399
aI593
aa(lp485
I0
aI352
aI554
aa(lp486
I0
aI314
aI516
aa(lp487
I0
aI290
aI456
aa(lp488
I0
aI252
aI421
aa(lp489
I0
aI199
aI352
aa(lp490
I0
aI163
aI312
aa(lp491
I0
aI109
aI288
aa(lp492
I0
aI63
aI273
aa(lp493
I0
aI35
aI273
aa(lp494
I0
aI37
aI274
aa(lp495
I0
aI38
aI275
aa(lp496
I0
aI38
aI276
aa(lp497
I0
aI38
aI276
aa(lp498
I0
aI38
aI276
aa(lp499
I0
aI38
aI272
aa(lp500
I0
aI38
aI227
aa(lp501
I0
aI36
aI186
aa(lp502
I0
aI29
aI108
aa(lp503
I0
aI16
aI37
aa(lp504
I0
aI0
aI0
aa(lp505
I0
aI0
aI0
aa(lp506
I0
aI0
aI0
aa(lp507
I0
aI0
aI0
aa(lp508
I0
aI0
aI0
aa(lp509
I0
aI0
aI0
aa(lp510
I0
aI9
aI0
aa(lp511
I0
aI16
aI0
aa(lp512
I0
aI15
aI0
aa(lp513
I0
aI8
aI0
aa(lp514
I0
aI6
aI0
aa(lp515
I0
aI0
aI0
aa(lp516
I0
aI0
aI0
aa(lp517
I0
aI0
aI0
aa(lp518
I0
aI0
aI0
aa(lp519
I0
aI0
aI0
aa(lp520
I0
aI0
aI0
aa(lp521
I0
aI0
aI0
aa(lp522
I0
aI0
aI0
aa(lp523
I0
aI0
aI0
aa(lp524
I0
aI0
aI0
aa(lp525
I0
aI0
aI0
aa(lp526
I0
aI0
aI0
aa(lp527
I0
aI0
aI0
aa(lp528
I0
aI0
aI0
aa(lp529
I0
aI0
aI0
aa(lp530
I0
aI0
aI0
aa(lp531
I0
aI0
aI0
aa(lp532
I0
aI0
aI0
aa(lp533
I0
aI0
aI0
aa(lp534
I0
aI0
aI0
aa(lp535
I0
aI0
aI0
aa(lp536
I0
aI0
aI0
aa(lp537
I0
aI0
aI0
aa(lp538
I0
aI0
aI0
aa(lp539
I0
aI0
aI0
aa(lp540
I0
aI0
aI0
aa(lp541
I0
aI0
aI0
aa(lp542
I0
aI0
aI0
aa(lp543
I0
aI0
aI0
aa(lp544
I0
aI0
aI0
aa(lp545
I0
aI0
aI0
aa(lp546
I0
aI0
aI0
aa(lp547
I0
aI0
aI0
aa(lp548
I0
aI0
aI0
aa(lp549
I1
aI0
aI0
aa.