(lp0
(lp1
S'user'
p2
aS'Tue Mar 28 14:41:07 2017'
p3
aS'mouse'
p4
aa(lp5
I0
aI482
aI334
aa(lp6
I0
aI482
aI333
aa(lp7
I0
aI482
aI331
aa(lp8
I0
aI482
aI330
aa(lp9
I0
aI482
aI329
aa(lp10
I0
aI483
aI327
aa(lp11
I0
aI483
aI324
aa(lp12
I0
aI483
aI322
aa(lp13
I0
aI483
aI320
aa(lp14
I0
aI484
aI320
aa(lp15
I0
aI484
aI319
aa(lp16
I0
aI484
aI319
aa(lp17
I0
aI484
aI319
aa(lp18
I0
aI483
aI314
aa(lp19
I0
aI481
aI313
aa(lp20
I0
aI480
aI313
aa(lp21
I0
aI477
aI313
aa(lp22
I0
aI475
aI313
aa(lp23
I0
aI472
aI313
aa(lp24
I0
aI469
aI312
aa(lp25
I0
aI467
aI312
aa(lp26
I0
aI464
aI312
aa(lp27
I0
aI461
aI312
aa(lp28
I0
aI457
aI311
aa(lp29
I0
aI451
aI311
aa(lp30
I0
aI445
aI311
aa(lp31
I0
aI440
aI312
aa(lp32
I0
aI437
aI313
aa(lp33
I0
aI433
aI313
aa(lp34
I0
aI429
aI314
aa(lp35
I0
aI424
aI316
aa(lp36
I0
aI416
aI317
aa(lp37
I0
aI412
aI320
aa(lp38
I0
aI409
aI323
aa(lp39
I0
aI406
aI328
aa(lp40
I0
aI403
aI333
aa(lp41
I0
aI400
aI336
aa(lp42
I0
aI398
aI338
aa(lp43
I0
aI396
aI341
aa(lp44
I0
aI395
aI345
aa(lp45
I0
aI395
aI345
aa(lp46
I0
aI394
aI345
aa(lp47
I0
aI393
aI345
aa(lp48
I0
aI388
aI348
aa(lp49
I0
aI377
aI358
aa(lp50
I0
aI365
aI368
aa(lp51
I0
aI350
aI374
aa(lp52
I0
aI322
aI380
aa(lp53
I0
aI302
aI385
aa(lp54
I0
aI287
aI386
aa(lp55
I0
aI268
aI389
aa(lp56
I0
aI252
aI390
aa(lp57
I0
aI242
aI392
aa(lp58
I0
aI235
aI394
aa(lp59
I0
aI228
aI395
aa(lp60
I0
aI216
aI395
aa(lp61
I0
aI204
aI397
aa(lp62
I0
aI195
aI397
aa(lp63
I0
aI192
aI397
aa(lp64
I0
aI190
aI397
aa(lp65
I0
aI189
aI397
aa(lp66
I0
aI189
aI397
aa(lp67
I0
aI189
aI397
aa(lp68
I0
aI189
aI396
aa(lp69
I0
aI205
aI387
aa(lp70
I0
aI222
aI379
aa(lp71
I0
aI242
aI370
aa(lp72
I0
aI285
aI363
aa(lp73
I0
aI312
aI363
aa(lp74
I0
aI330
aI367
aa(lp75
I0
aI352
aI370
aa(lp76
I0
aI365
aI373
aa(lp77
I0
aI374
aI376
aa(lp78
I0
aI379
aI379
aa(lp79
I0
aI385
aI381
aa(lp80
I0
aI391
aI383
aa(lp81
I0
aI398
aI385
aa(lp82
I0
aI402
aI386
aa(lp83
I0
aI405
aI389
aa(lp84
I0
aI407
aI391
aa(lp85
I0
aI408
aI394
aa(lp86
I0
aI410
aI397
aa(lp87
I0
aI410
aI406
aa(lp88
I0
aI410
aI414
aa(lp89
I0
aI410
aI419
aa(lp90
I0
aI410
aI424
aa(lp91
I0
aI408
aI428
aa(lp92
I0
aI403
aI434
aa(lp93
I0
aI395
aI439
aa(lp94
I0
aI386
aI448
aa(lp95
I0
aI377
aI455
aa(lp96
I0
aI368
aI458
aa(lp97
I0
aI356
aI458
aa(lp98
I0
aI330
aI454
aa(lp99
I0
aI305
aI434
aa(lp100
I0
aI242
aI410
aa(lp101
I0
aI186
aI366
aa(lp102
I0
aI139
aI287
aa(lp103
I0
aI74
aI224
aa(lp104
I0
aI33
aI124
aa(lp105
I0
aI0
aI68
aa(lp106
I0
aI0
aI0
aa(lp107
I0
aI0
aI0
aa(lp108
I0
aI0
aI0
aa(lp109
I0
aI0
aI0
aa(lp110
I0
aI0
aI0
aa(lp111
I0
aI0
aI0
aa(lp112
I0
aI0
aI0
aa(lp113
I0
aI0
aI0
aa(lp114
I0
aI0
aI0
aa(lp115
I0
aI0
aI0
aa(lp116
I0
aI0
aI0
aa(lp117
I0
aI0
aI0
aa(lp118
I0
aI0
aI0
aa(lp119
I0
aI0
aI0
aa(lp120
I0
aI0
aI0
aa(lp121
I0
aI0
aI0
aa(lp122
I0
aI0
aI0
aa(lp123
I0
aI0
aI0
aa(lp124
I0
aI0
aI0
aa(lp125
I0
aI0
aI0
aa(lp126
I0
aI0
aI0
aa(lp127
I0
aI0
aI0
aa(lp128
I0
aI0
aI0
aa(lp129
I0
aI0
aI0
aa(lp130
I0
aI0
aI0
aa(lp131
I0
aI0
aI0
aa(lp132
I0
aI0
aI0
aa(lp133
I0
aI0
aI0
aa(lp134
I0
aI0
aI0
aa(lp135
I0
aI0
aI0
aa(lp136
I0
aI0
aI0
aa(lp137
I0
aI0
aI0
aa(lp138
I0
aI0
aI0
aa(lp139
I0
aI0
aI0
aa(lp140
I0
aI0
aI0
aa(lp141
I0
aI0
aI0
aa(lp142
I1
aI0
aI0
aa.