(lp0
(lp1
S'user'
p2
aS'Thu Apr 20 13:11:00 2017'
p3
aS'mouse'
p4
aa(lp5
I0
aI665
aI420
aa(lp6
I0
aI665
aI420
aa(lp7
I0
aI665
aI419
aa(lp8
I0
aI664
aI418
aa(lp9
I0
aI655
aI414
aa(lp10
I0
aI646
aI412
aa(lp11
I0
aI627
aI410
aa(lp12
I0
aI612
aI407
aa(lp13
I0
aI589
aI406
aa(lp14
I0
aI570
aI405
aa(lp15
I0
aI558
aI404
aa(lp16
I0
aI551
aI403
aa(lp17
I0
aI543
aI402
aa(lp18
I0
aI529
aI401
aa(lp19
I0
aI518
aI399
aa(lp20
I0
aI512
aI396
aa(lp21
I0
aI506
aI395
aa(lp22
I0
aI498
aI395
aa(lp23
I0
aI486
aI395
aa(lp24
I0
aI477
aI395
aa(lp25
I0
aI472
aI395
aa(lp26
I0
aI467
aI395
aa(lp27
I0
aI465
aI394
aa(lp28
I0
aI462
aI395
aa(lp29
I0
aI458
aI395
aa(lp30
I0
aI454
aI396
aa(lp31
I0
aI446
aI398
aa(lp32
I0
aI441
aI401
aa(lp33
I0
aI436
aI404
aa(lp34
I0
aI433
aI407
aa(lp35
I0
aI430
aI412
aa(lp36
I0
aI427
aI418
aa(lp37
I0
aI426
aI432
aa(lp38
I0
aI426
aI449
aa(lp39
I0
aI426
aI461
aa(lp40
I0
aI430
aI469
aa(lp41
I0
aI437
aI477
aa(lp42
I0
aI446
aI486
aa(lp43
I0
aI460
aI494
aa(lp44
I0
aI476
aI500
aa(lp45
I0
aI486
aI503
aa(lp46
I0
aI495
aI505
aa(lp47
I0
aI504
aI506
aa(lp48
I0
aI520
aI508
aa(lp49
I0
aI532
aI508
aa(lp50
I0
aI540
aI508
aa(lp51
I0
aI545
aI505
aa(lp52
I0
aI559
aI493
aa(lp53
I0
aI586
aI475
aa(lp54
I0
aI603
aI461
aa(lp55
I0
aI611
aI450
aa(lp56
I0
aI616
aI435
aa(lp57
I0
aI621
aI406
aa(lp58
I0
aI627
aI381
aa(lp59
I0
aI630
aI351
aa(lp60
I0
aI635
aI303
aa(lp61
I0
aI638
aI275
aa(lp62
I0
aI645
aI248
aa(lp63
I0
aI655
aI213
aa(lp64
I0
aI668
aI194
aa(lp65
I0
aI676
aI182
aa(lp66
I0
aI685
aI175
aa(lp67
I0
aI693
aI168
aa(lp68
I0
aI701
aI160
aa(lp69
I0
aI709
aI156
aa(lp70
I0
aI717
aI153
aa(lp71
I0
aI728
aI153
aa(lp72
I0
aI742
aI153
aa(lp73
I0
aI751
aI156
aa(lp74
I0
aI758
aI161
aa(lp75
I0
aI765
aI166
aa(lp76
I0
aI776
aI171
aa(lp77
I0
aI791
aI176
aa(lp78
I0
aI799
aI181
aa(lp79
I0
aI803
aI189
aa(lp80
I0
aI809
aI201
aa(lp81
I0
aI812
aI212
aa(lp82
I0
aI815
aI223
aa(lp83
I0
aI816
aI235
aa(lp84
I0
aI816
aI255
aa(lp85
I0
aI816
aI286
aa(lp86
I0
aI815
aI303
aa(lp87
I0
aI809
aI319
aa(lp88
I0
aI802
aI340
aa(lp89
I0
aI791
aI362
aa(lp90
I0
aI766
aI378
aa(lp91
I0
aI742
aI392
aa(lp92
I0
aI727
aI407
aa(lp93
I0
aI707
aI422
aa(lp94
I0
aI658
aI436
aa(lp95
I0
aI608
aI438
aa(lp96
I0
aI532
aI437
aa(lp97
I0
aI470
aI410
aa(lp98
I0
aI411
aI388
aa(lp99
I0
aI349
aI373
aa(lp100
I0
aI298
aI364
aa(lp101
I0
aI269
aI358
aa(lp102
I0
aI222
aI356
aa(lp103
I0
aI195
aI356
aa(lp104
I0
aI180
aI361
aa(lp105
I0
aI168
aI369
aa(lp106
I0
aI156
aI378
aa(lp107
I0
aI146
aI390
aa(lp108
I0
aI142
aI405
aa(lp109
I0
aI139
aI416
aa(lp110
I0
aI139
aI425
aa(lp111
I0
aI143
aI432
aa(lp112
I0
aI157
aI444
aa(lp113
I0
aI169
aI461
aa(lp114
I0
aI182
aI472
aa(lp115
I0
aI197
aI477
aa(lp116
I0
aI230
aI479
aa(lp117
I0
aI251
aI479
aa(lp118
I0
aI269
aI479
aa(lp119
I0
aI305
aI473
aa(lp120
I0
aI325
aI460
aa(lp121
I0
aI349
aI439
aa(lp122
I0
aI396
aI417
aa(lp123
I0
aI422
aI398
aa(lp124
I0
aI441
aI372
aa(lp125
I0
aI471
aI331
aa(lp126
I0
aI498
aI301
aa(lp127
I0
aI515
aI258
aa(lp128
I0
aI527
aI205
aa(lp129
I0
aI542
aI189
aa(lp130
I0
aI553
aI179
aa(lp131
I0
aI571
aI176
aa(lp132
I0
aI594
aI172
aa(lp133
I0
aI610
aI172
aa(lp134
I0
aI620
aI174
aa(lp135
I0
aI631
aI178
aa(lp136
I0
aI644
aI183
aa(lp137
I0
aI654
aI192
aa(lp138
I0
aI663
aI209
aa(lp139
I0
aI670
aI234
aa(lp140
I0
aI673
aI252
aa(lp141
I0
aI674
aI268
aa(lp142
I0
aI674
aI294
aa(lp143
I0
aI670
aI320
aa(lp144
I0
aI659
aI333
aa(lp145
I0
aI643
aI351
aa(lp146
I0
aI614
aI368
aa(lp147
I0
aI585
aI389
aa(lp148
I0
aI564
aI400
aa(lp149
I0
aI519
aI401
aa(lp150
I0
aI486
aI398
aa(lp151
I0
aI425
aI372
aa(lp152
I0
aI387
aI340
aa(lp153
I0
aI367
aI311
aa(lp154
I0
aI358
aI263
aa(lp155
I0
aI358
aI222
aa(lp156
I0
aI373
aI184
aa(lp157
I0
aI401
aI123
aa(lp158
I0
aI469
aI96
aa(lp159
I0
aI523
aI90
aa(lp160
I0
aI596
aI90
aa(lp161
I0
aI630
aI104
aa(lp162
I0
aI668
aI146
aa(lp163
I0
aI721
aI189
aa(lp164
I0
aI743
aI234
aa(lp165
I0
aI763
aI293
aa(lp166
I0
aI766
aI326
aa(lp167
I0
aI771
aI373
aa(lp168
I0
aI769
aI425
aa(lp169
I0
aI751
aI469
aa(lp170
I0
aI730
aI500
aa(lp171
I0
aI702
aI515
aa(lp172
I0
aI673
aI521
aa(lp173
I0
aI655
aI523
aa(lp174
I0
aI644
aI522
aa(lp175
I0
aI624
aI515
aa(lp176
I0
aI605
aI497
aa(lp177
I0
aI591
aI448
aa(lp178
I0
aI591
aI372
aa(lp179
I0
aI605
aI305
aa(lp180
I0
aI670
aI222
aa(lp181
I0
aI727
aI188
aa(lp182
I0
aI757
aI172
aa(lp183
I0
aI789
aI172
aa(lp184
I0
aI820
aI181
aa(lp185
I0
aI836
aI192
aa(lp186
I0
aI848
aI208
aa(lp187
I0
aI859
aI237
aa(lp188
I0
aI865
aI261
aa(lp189
I0
aI870
aI287
aa(lp190
I0
aI864
aI323
aa(lp191
I0
aI846
aI361
aa(lp192
I0
aI824
aI394
aa(lp193
I0
aI791
aI413
aa(lp194
I0
aI741
aI425
aa(lp195
I0
aI707
aI431
aa(lp196
I0
aI651
aI431
aa(lp197
I0
aI599
aI430
aa(lp198
I0
aI528
aI413
aa(lp199
I0
aI502
aI389
aa(lp200
I0
aI474
aI347
aa(lp201
I0
aI466
aI264
aa(lp202
I0
aI487
aI192
aa(lp203
I0
aI530
aI98
aa(lp204
I0
aI573
aI70
aa(lp205
I0
aI673
aI54
aa(lp206
I0
aI733
aI52
aa(lp207
I0
aI795
aI53
aa(lp208
I0
aI820
aI63
aa(lp209
I0
aI844
aI80
aa(lp210
I0
aI876
aI120
aa(lp211
I0
aI893
aI156
aa(lp212
I0
aI899
aI188
aa(lp213
I0
aI899
aI246
aa(lp214
I0
aI899
aI293
aa(lp215
I0
aI872
aI333
aa(lp216
I0
aI838
aI361
aa(lp217
I0
aI845
aI334
aa(lp218
I0
aI862
aI280
aa(lp219
I0
aI903
aI240
aa(lp220
I0
aI964
aI222
aa(lp221
I0
aI1006
aI214
aa(lp222
I0
aI1049
aI214
aa(lp223
I0
aI1087
aI217
aa(lp224
I0
aI1104
aI224
aa(lp225
I0
aI1121
aI226
aa(lp226
I0
aI1145
aI227
aa(lp227
I0
aI1160
aI228
aa(lp228
I0
aI1166
aI227
aa(lp229
I0
aI1171
aI221
aa(lp230
I0
aI1178
aI215
aa(lp231
I0
aI1181
aI202
aa(lp232
I0
aI1187
aI192
aa(lp233
I0
aI1187
aI184
aa(lp234
I0
aI1187
aI179
aa(lp235
I0
aI1187
aI175
aa(lp236
I0
aI1181
aI168
aa(lp237
I0
aI1169
aI151
aa(lp238
I0
aI1136
aI122
aa(lp239
I0
aI1080
aI98
aa(lp240
I0
aI1011
aI55
aa(lp241
I0
aI896
aI8
aa(lp242
I0
aI763
aI0
aa(lp243
I0
aI622
aI0
aa(lp244
I0
aI472
aI0
aa(lp245
I0
aI306
aI0
aa(lp246
I0
aI134
aI6
aa(lp247
I0
aI29
aI23
aa(lp248
I0
aI0
aI41
aa(lp249
I0
aI0
aI56
aa(lp250
I0
aI0
aI59
aa(lp251
I0
aI0
aI59
aa(lp252
I0
aI0
aI59
aa(lp253
I0
aI0
aI59
aa(lp254
I0
aI0
aI50
aa(lp255
I0
aI0
aI0
aa(lp256
I0
aI0
aI0
aa(lp257
I0
aI0
aI0
aa(lp258
I0
aI0
aI0
aa(lp259
I0
aI0
aI0
aa(lp260
I0
aI0
aI0
aa(lp261
I0
aI0
aI0
aa(lp262
I0
aI0
aI0
aa(lp263
I0
aI0
aI0
aa(lp264
I1
aI0
aI0
aa(lp265
I0
aI3
aI4
aa(lp266
I0
aI23
aI17
aa(lp267
I0
aI54
aI34
aa(lp268
I0
aI82
aI48
aa(lp269
I0
aI147
aI72
aa(lp270
I0
aI210
aI124
aa(lp271
I0
aI284
aI160
aa(lp272
I0
aI337
aI217
aa(lp273
I0
aI399
aI263
aa(lp274
I0
aI426
aI288
aa(lp275
I0
aI444
aI306
aa(lp276
I0
aI452
aI316
aa(lp277
I0
aI455
aI319
aa(lp278
I0
aI455
aI320
aa(lp279
I0
aI455
aI320
aa(lp280
I0
aI456
aI320
aa(lp281
I0
aI456
aI320
aa(lp282
I0
aI455
aI322
aa(lp283
I0
aI455
aI323
aa(lp284
I0
aI451
aI328
aa(lp285
I0
aI448
aI332
aa(lp286
I0
aI445
aI333
aa(lp287
I0
aI443
aI333
aa(lp288
I0
aI442
aI333
aa(lp289
I0
aI441
aI332
aa(lp290
I0
aI439
aI331
aa(lp291
I0
aI438
aI330
aa(lp292
I0
aI437
aI330
aa(lp293
I0
aI433
aI329
aa(lp294
I0
aI415
aI322
aa(lp295
I0
aI386
aI296
aa(lp296
I0
aI300
aI250
aa(lp297
I0
aI127
aI137
aa(lp298
I0
aI0
aI0
aa(lp299
I0
aI0
aI0
aa(lp300
I0
aI0
aI0
aa(lp301
I0
aI0
aI0
aa(lp302
I0
aI0
aI0
aa(lp303
I0
aI0
aI0
aa(lp304
I1
aI0
aI0
aa.