(lp0
(lp1
S'user'
p2
aS'Thu Apr 20 10:36:23 2017'
p3
aS'mouse'
p4
aa(lp5
I0
aI372
aI428
aa(lp6
I0
aI366
aI419
aa(lp7
I0
aI357
aI379
aa(lp8
I0
aI347
aI345
aa(lp9
I0
aI343
aI268
aa(lp10
I0
aI343
aI221
aa(lp11
I0
aI355
aI131
aa(lp12
I0
aI375
aI88
aa(lp13
I0
aI405
aI55
aa(lp14
I0
aI458
aI19
aa(lp15
I0
aI492
aI0
aa(lp16
I0
aI518
aI0
aa(lp17
I0
aI555
aI4
aa(lp18
I0
aI586
aI18
aa(lp19
I0
aI627
aI39
aa(lp20
I0
aI676
aI52
aa(lp21
I0
aI697
aI67
aa(lp22
I0
aI712
aI84
aa(lp23
I0
aI727
aI107
aa(lp24
I0
aI748
aI134
aa(lp25
I0
aI763
aI154
aa(lp26
I0
aI765
aI178
aa(lp27
I0
aI767
aI218
aa(lp28
I0
aI767
aI242
aa(lp29
I0
aI762
aI265
aa(lp30
I0
aI742
aI304
aa(lp31
I0
aI723
aI334
aa(lp32
I0
aI708
aI355
aa(lp33
I0
aI695
aI371
aa(lp34
I0
aI666
aI380
aa(lp35
I0
aI604
aI383
aa(lp36
I0
aI532
aI375
aa(lp37
I0
aI470
aI360
aa(lp38
I0
aI393
aI346
aa(lp39
I0
aI341
aI339
aa(lp40
I0
aI273
aI334
aa(lp41
I0
aI238
aI332
aa(lp42
I0
aI217
aI332
aa(lp43
I0
aI188
aI333
aa(lp44
I0
aI166
aI339
aa(lp45
I0
aI156
aI346
aa(lp46
I0
aI152
aI352
aa(lp47
I0
aI148
aI360
aa(lp48
I0
aI147
aI374
aa(lp49
I0
aI146
aI386
aa(lp50
I0
aI146
aI396
aa(lp51
I0
aI148
aI405
aa(lp52
I0
aI155
aI420
aa(lp53
I0
aI168
aI440
aa(lp54
I0
aI193
aI450
aa(lp55
I0
aI213
aI458
aa(lp56
I0
aI231
aI463
aa(lp57
I0
aI263
aI469
aa(lp58
I0
aI295
aI474
aa(lp59
I0
aI319
aI478
aa(lp60
I0
aI351
aI480
aa(lp61
I0
aI370
aI480
aa(lp62
I0
aI386
aI478
aa(lp63
I0
aI407
aI474
aa(lp64
I0
aI428
aI468
aa(lp65
I0
aI440
aI462
aa(lp66
I0
aI448
aI457
aa(lp67
I0
aI454
aI444
aa(lp68
I0
aI460
aI422
aa(lp69
I0
aI465
aI401
aa(lp70
I0
aI469
aI381
aa(lp71
I0
aI469
aI348
aa(lp72
I0
aI471
aI321
aa(lp73
I0
aI475
aI301
aa(lp74
I0
aI485
aI281
aa(lp75
I0
aI497
aI259
aa(lp76
I0
aI509
aI246
aa(lp77
I0
aI522
aI240
aa(lp78
I0
aI528
aI238
aa(lp79
I0
aI538
aI239
aa(lp80
I0
aI565
aI247
aa(lp81
I0
aI583
aI264
aa(lp82
I0
aI601
aI281
aa(lp83
I0
aI626
aI292
aa(lp84
I0
aI650
aI302
aa(lp85
I0
aI661
aI313
aa(lp86
I0
aI669
aI326
aa(lp87
I0
aI673
aI342
aa(lp88
I0
aI678
aI355
aa(lp89
I0
aI680
aI362
aa(lp90
I0
aI681
aI367
aa(lp91
I0
aI681
aI372
aa(lp92
I0
aI681
aI378
aa(lp93
I0
aI679
aI386
aa(lp94
I0
aI675
aI396
aa(lp95
I0
aI668
aI405
aa(lp96
I0
aI660
aI409
aa(lp97
I0
aI649
aI410
aa(lp98
I0
aI641
aI412
aa(lp99
I0
aI636
aI412
aa(lp100
I0
aI634
aI412
aa(lp101
I0
aI634
aI412
aa(lp102
I0
aI632
aI412
aa(lp103
I0
aI631
aI412
aa(lp104
I0
aI631
aI412
aa(lp105
I0
aI629
aI412
aa(lp106
I0
aI615
aI410
aa(lp107
I0
aI594
aI404
aa(lp108
I0
aI543
aI401
aa(lp109
I0
aI513
aI402
aa(lp110
I0
aI470
aI407
aa(lp111
I0
aI448
aI411
aa(lp112
I0
aI437
aI414
aa(lp113
I0
aI430
aI415
aa(lp114
I0
aI424
aI417
aa(lp115
I0
aI421
aI418
aa(lp116
I0
aI421
aI419
aa(lp117
I0
aI421
aI419
aa(lp118
I0
aI421
aI420
aa(lp119
I0
aI421
aI420
aa(lp120
I0
aI421
aI422
aa(lp121
I0
aI421
aI423
aa(lp122
I0
aI423
aI424
aa(lp123
I0
aI427
aI427
aa(lp124
I0
aI432
aI432
aa(lp125
I0
aI438
aI444
aa(lp126
I0
aI446
aI455
aa(lp127
I0
aI458
aI461
aa(lp128
I0
aI477
aI464
aa(lp129
I0
aI489
aI467
aa(lp130
I0
aI497
aI468
aa(lp131
I0
aI504
aI468
aa(lp132
I0
aI512
aI468
aa(lp133
I0
aI524
aI468
aa(lp134
I0
aI533
aI466
aa(lp135
I0
aI537
aI462
aa(lp136
I0
aI545
aI455
aa(lp137
I0
aI557
aI437
aa(lp138
I0
aI580
aI419
aa(lp139
I0
aI595
aI404
aa(lp140
I0
aI605
aI388
aa(lp141
I0
aI614
aI368
aa(lp142
I0
aI621
aI355
aa(lp143
I0
aI626
aI348
aa(lp144
I0
aI631
aI347
aa(lp145
I0
aI635
aI346
aa(lp146
I0
aI642
aI346
aa(lp147
I0
aI647
aI348
aa(lp148
I0
aI651
aI349
aa(lp149
I0
aI655
aI353
aa(lp150
I0
aI658
aI360
aa(lp151
I0
aI665
aI369
aa(lp152
I0
aI675
aI377
aa(lp153
I0
aI687
aI385
aa(lp154
I0
aI695
aI394
aa(lp155
I0
aI699
aI404
aa(lp156
I0
aI701
aI410
aa(lp157
I0
aI702
aI414
aa(lp158
I0
aI702
aI416
aa(lp159
I0
aI702
aI417
aa(lp160
I0
aI702
aI418
aa(lp161
I0
aI702
aI419
aa(lp162
I0
aI689
aI421
aa(lp163
I0
aI675
aI423
aa(lp164
I0
aI636
aI422
aa(lp165
I0
aI590
aI410
aa(lp166
I0
aI488
aI384
aa(lp167
I0
aI424
aI357
aa(lp168
I0
aI370
aI340
aa(lp169
I0
aI335
aI327
aa(lp170
I0
aI275
aI316
aa(lp171
I0
aI248
aI308
aa(lp172
I0
aI229
aI304
aa(lp173
I0
aI211
aI304
aa(lp174
I0
aI199
aI306
aa(lp175
I0
aI195
aI308
aa(lp176
I0
aI193
aI310
aa(lp177
I0
aI192
aI312
aa(lp178
I0
aI192
aI314
aa(lp179
I0
aI191
aI317
aa(lp180
I0
aI190
aI319
aa(lp181
I0
aI190
aI322
aa(lp182
I0
aI190
aI327
aa(lp183
I0
aI191
aI334
aa(lp184
I0
aI196
aI338
aa(lp185
I0
aI209
aI341
aa(lp186
I0
aI223
aI343
aa(lp187
I0
aI238
aI346
aa(lp188
I0
aI271
aI349
aa(lp189
I0
aI294
aI351
aa(lp190
I0
aI314
aI354
aa(lp191
I0
aI353
aI354
aa(lp192
I0
aI386
aI354
aa(lp193
I0
aI444
aI352
aa(lp194
I0
aI468
aI349
aa(lp195
I0
aI501
aI346
aa(lp196
I0
aI523
aI346
aa(lp197
I0
aI537
aI346
aa(lp198
I0
aI554
aI348
aa(lp199
I0
aI578
aI358
aa(lp200
I0
aI591
aI370
aa(lp201
I0
aI598
aI385
aa(lp202
I0
aI605
aI393
aa(lp203
I0
aI607
aI399
aa(lp204
I0
aI609
aI402
aa(lp205
I0
aI610
aI404
aa(lp206
I0
aI610
aI405
aa(lp207
I0
aI610
aI407
aa(lp208
I0
aI609
aI409
aa(lp209
I0
aI605
aI413
aa(lp210
I0
aI593
aI419
aa(lp211
I0
aI561
aI426
aa(lp212
I0
aI532
aI429
aa(lp213
I0
aI482
aI423
aa(lp214
I0
aI449
aI410
aa(lp215
I0
aI387
aI394
aa(lp216
I0
aI354
aI371
aa(lp217
I0
aI309
aI325
aa(lp218
I0
aI282
aI282
aa(lp219
I0
aI272
aI231
aa(lp220
I0
aI272
aI170
aa(lp221
I0
aI272
aI140
aa(lp222
I0
aI296
aI106
aa(lp223
I0
aI336
aI69
aa(lp224
I0
aI366
aI53
aa(lp225
I0
aI389
aI50
aa(lp226
I0
aI431
aI50
aa(lp227
I0
aI460
aI58
aa(lp228
I0
aI489
aI76
aa(lp229
I0
aI535
aI97
aa(lp230
I0
aI563
aI116
aa(lp231
I0
aI586
aI136
aa(lp232
I0
aI612
aI166
aa(lp233
I0
aI628
aI203
aa(lp234
I0
aI634
aI228
aa(lp235
I0
aI634
aI254
aa(lp236
I0
aI634
aI288
aa(lp237
I0
aI612
aI314
aa(lp238
I0
aI587
aI332
aa(lp239
I0
aI568
aI353
aa(lp240
I0
aI549
aI368
aa(lp241
I0
aI514
aI379
aa(lp242
I0
aI485
aI385
aa(lp243
I0
aI471
aI385
aa(lp244
I0
aI456
aI382
aa(lp245
I0
aI432
aI369
aa(lp246
I0
aI413
aI351
aa(lp247
I0
aI403
aI331
aa(lp248
I0
aI401
aI306
aa(lp249
I0
aI401
aI259
aa(lp250
I0
aI411
aI223
aa(lp251
I0
aI432
aI174
aa(lp252
I0
aI470
aI139
aa(lp253
I0
aI504
aI126
aa(lp254
I0
aI525
aI126
aa(lp255
I0
aI554
aI131
aa(lp256
I0
aI588
aI152
aa(lp257
I0
aI621
aI201
aa(lp258
I0
aI676
aI236
aa(lp259
I0
aI699
aI273
aa(lp260
I0
aI713
aI310
aa(lp261
I0
aI715
aI333
aa(lp262
I0
aI715
aI351
aa(lp263
I0
aI715
aI368
aa(lp264
I0
aI704
aI393
aa(lp265
I0
aI673
aI410
aa(lp266
I0
aI649
aI420
aa(lp267
I0
aI626
aI423
aa(lp268
I0
aI584
aI423
aa(lp269
I0
aI556
aI415
aa(lp270
I0
aI502
aI390
aa(lp271
I0
aI464
aI352
aa(lp272
I0
aI420
aI322
aa(lp273
I0
aI378
aI288
aa(lp274
I0
aI360
aI254
aa(lp275
I0
aI344
aI242
aa(lp276
I0
aI335
aI242
aa(lp277
I0
aI330
aI244
aa(lp278
I0
aI325
aI256
aa(lp279
I0
aI315
aI269
aa(lp280
I0
aI306
aI281
aa(lp281
I0
aI302
aI292
aa(lp282
I0
aI302
aI309
aa(lp283
I0
aI309
aI332
aa(lp284
I0
aI325
aI347
aa(lp285
I0
aI339
aI357
aa(lp286
I0
aI350
aI366
aa(lp287
I0
aI374
aI375
aa(lp288
I0
aI414
aI379
aa(lp289
I0
aI465
aI382
aa(lp290
I0
aI503
aI380
aa(lp291
I0
aI547
aI370
aa(lp292
I0
aI591
aI358
aa(lp293
I0
aI608
aI348
aa(lp294
I0
aI617
aI342
aa(lp295
I0
aI621
aI335
aa(lp296
I0
aI625
aI317
aa(lp297
I0
aI630
aI289
aa(lp298
I0
aI637
aI266
aa(lp299
I0
aI644
aI239
aa(lp300
I0
aI654
aI218
aa(lp301
I0
aI662
aI210
aa(lp302
I0
aI670
aI207
aa(lp303
I0
aI674
aI207
aa(lp304
I0
aI681
aI208
aa(lp305
I0
aI697
aI219
aa(lp306
I0
aI726
aI250
aa(lp307
I0
aI751
aI281
aa(lp308
I0
aI774
aI309
aa(lp309
I0
aI792
aI344
aa(lp310
I0
aI800
aI368
aa(lp311
I0
aI800
aI381
aa(lp312
I0
aI792
aI398
aa(lp313
I0
aI780
aI419
aa(lp314
I0
aI763
aI437
aa(lp315
I0
aI743
aI448
aa(lp316
I0
aI706
aI452
aa(lp317
I0
aI683
aI452
aa(lp318
I0
aI661
aI446
aa(lp319
I0
aI621
aI426
aa(lp320
I0
aI577
aI399
aa(lp321
I0
aI502
aI369
aa(lp322
I0
aI467
aI337
aa(lp323
I0
aI440
aI298
aa(lp324
I0
aI394
aI278
aa(lp325
I0
aI366
aI269
aa(lp326
I0
aI350
aI269
aa(lp327
I0
aI337
aI269
aa(lp328
I0
aI325
aI272
aa(lp329
I0
aI315
aI279
aa(lp330
I0
aI307
aI301
aa(lp331
I0
aI303
aI321
aa(lp332
I0
aI301
aI334
aa(lp333
I0
aI301
aI349
aa(lp334
I0
aI307
aI376
aa(lp335
I0
aI327
aI396
aa(lp336
I0
aI354
aI406
aa(lp337
I0
aI374
aI413
aa(lp338
I0
aI410
aI418
aa(lp339
I0
aI448
aI419
aa(lp340
I0
aI491
aI417
aa(lp341
I0
aI537
aI409
aa(lp342
I0
aI566
aI400
aa(lp343
I0
aI598
aI385
aa(lp344
I0
aI615
aI359
aa(lp345
I0
aI625
aI335
aa(lp346
I0
aI632
aI318
aa(lp347
I0
aI645
aI304
aa(lp348
I0
aI666
aI293
aa(lp349
I0
aI694
aI288
aa(lp350
I0
aI713
aI289
aa(lp351
I0
aI733
aI297
aa(lp352
I0
aI754
aI305
aa(lp353
I0
aI765
aI312
aa(lp354
I0
aI769
aI320
aa(lp355
I0
aI770
aI331
aa(lp356
I0
aI770
aI342
aa(lp357
I0
aI764
aI353
aa(lp358
I0
aI745
aI361
aa(lp359
I0
aI717
aI371
aa(lp360
I0
aI693
aI379
aa(lp361
I0
aI658
aI382
aa(lp362
I0
aI629
aI382
aa(lp363
I0
aI588
aI377
aa(lp364
I0
aI545
aI364
aa(lp365
I0
aI500
aI342
aa(lp366
I0
aI464
aI299
aa(lp367
I0
aI443
aI269
aa(lp368
I0
aI439
aI248
aa(lp369
I0
aI439
aI236
aa(lp370
I0
aI439
aI230
aa(lp371
I0
aI439
aI223
aa(lp372
I0
aI440
aI221
aa(lp373
I0
aI438
aI219
aa(lp374
I0
aI396
aI204
aa(lp375
I0
aI281
aI124
aa(lp376
I0
aI120
aI25
aa(lp377
I0
aI0
aI0
aa(lp378
I0
aI0
aI0
aa(lp379
I0
aI0
aI0
aa(lp380
I0
aI0
aI0
aa(lp381
I0
aI0
aI0
aa(lp382
I0
aI0
aI0
aa(lp383
I0
aI0
aI0
aa(lp384
I0
aI0
aI0
aa(lp385
I0
aI0
aI1
aa(lp386
I0
aI0
aI1
aa(lp387
I0
aI0
aI1
aa(lp388
I0
aI0
aI2
aa(lp389
I0
aI0
aI2
aa(lp390
I0
aI0
aI1
aa(lp391
I0
aI0
aI1
aa(lp392
I0
aI0
aI1
aa(lp393
I0
aI0
aI0
aa(lp394
I0
aI0
aI0
aa(lp395
I0
aI0
aI0
aa(lp396
I0
aI0
aI0
aa(lp397
I0
aI0
aI0
aa(lp398
I0
aI0
aI0
aa(lp399
I0
aI0
aI0
aa(lp400
I0
aI0
aI0
aa(lp401
I0
aI0
aI0
aa(lp402
I0
aI0
aI0
aa(lp403
I0
aI0
aI0
aa(lp404
I0
aI0
aI0
aa(lp405
I0
aI0
aI0
aa(lp406
I0
aI0
aI0
aa(lp407
I0
aI0
aI0
aa(lp408
I0
aI0
aI0
aa(lp409
I0
aI0
aI0
aa(lp410
I0
aI0
aI0
aa(lp411
I0
aI0
aI0
aa(lp412
I0
aI0
aI0
aa(lp413
I1
aI0
aI0
aa.