(lp0
(lp1
S'user'
p2
aS'Thu Mar 30 00:51:02 2017'
p3
aS'mouse'
p4
aa(lp5
I0
aI999
aI437
aa(lp6
I0
aI999
aI437
aa(lp7
I0
aI999
aI437
aa(lp8
I0
aI999
aI437
aa(lp9
I0
aI1000
aI437
aa(lp10
I0
aI1001
aI437
aa(lp11
I0
aI1001
aI437
aa(lp12
I0
aI1001
aI437
aa(lp13
I0
aI1001
aI437
aa(lp14
I0
aI1001
aI437
aa(lp15
I0
aI1001
aI437
aa(lp16
I0
aI1001
aI437
aa(lp17
I0
aI1001
aI437
aa(lp18
I0
aI1001
aI438
aa(lp19
I0
aI1001
aI438
aa(lp20
I0
aI1000
aI439
aa(lp21
I0
aI999
aI440
aa(lp22
I0
aI998
aI440
aa(lp23
I0
aI998
aI440
aa(lp24
I0
aI996
aI440
aa(lp25
I0
aI995
aI440
aa(lp26
I0
aI994
aI441
aa(lp27
I0
aI994
aI441
aa(lp28
I0
aI994
aI441
aa(lp29
I0
aI994
aI440
aa(lp30
I0
aI994
aI439
aa(lp31
I0
aI993
aI436
aa(lp32
I0
aI984
aI425
aa(lp33
I0
aI960
aI409
aa(lp34
I0
aI938
aI394
aa(lp35
I0
aI901
aI370
aa(lp36
I0
aI842
aI339
aa(lp37
I0
aI762
aI314
aa(lp38
I0
aI704
aI282
aa(lp39
I0
aI619
aI223
aa(lp40
I0
aI566
aI187
aa(lp41
I0
aI496
aI161
aa(lp42
I0
aI459
aI117
aa(lp43
I0
aI436
aI89
aa(lp44
I0
aI427
aI73
aa(lp45
I0
aI425
aI73
aa(lp46
I0
aI406
aI67
aa(lp47
I0
aI290
aI23
aa(lp48
I0
aI120
aI0
aa(lp49
I0
aI0
aI0
aa(lp50
I0
aI0
aI0
aa(lp51
I0
aI0
aI0
aa(lp52
I0
aI0
aI0
aa(lp53
I0
aI0
aI0
aa(lp54
I0
aI0
aI0
aa(lp55
I0
aI0
aI0
aa(lp56
I0
aI0
aI0
aa(lp57
I0
aI0
aI0
aa(lp58
I0
aI0
aI0
aa(lp59
I0
aI0
aI0
aa(lp60
I0
aI0
aI0
aa(lp61
I0
aI0
aI0
aa(lp62
I0
aI0
aI0
aa(lp63
I0
aI0
aI0
aa(lp64
I0
aI0
aI0
aa(lp65
I1
aI0
aI0
aa.