(lp0
(lp1
S'user'
p2
aS'Thu Mar 30 00:50:42 2017'
p3
aS'mouse'
p4
aa(lp5
I0
aI617
aI314
aa(lp6
I0
aI617
aI314
aa(lp7
I0
aI616
aI314
aa(lp8
I0
aI616
aI314
aa(lp9
I0
aI615
aI314
aa(lp10
I0
aI613
aI314
aa(lp11
I0
aI613
aI314
aa(lp12
I0
aI611
aI315
aa(lp13
I0
aI607
aI317
aa(lp14
I0
aI604
aI318
aa(lp15
I0
aI601
aI318
aa(lp16
I0
aI598
aI319
aa(lp17
I0
aI595
aI319
aa(lp18
I0
aI594
aI320
aa(lp19
I0
aI594
aI320
aa(lp20
I0
aI592
aI320
aa(lp21
I0
aI592
aI321
aa(lp22
I0
aI591
aI321
aa(lp23
I0
aI591
aI321
aa(lp24
I0
aI590
aI321
aa(lp25
I0
aI590
aI321
aa(lp26
I0
aI590
aI321
aa(lp27
I0
aI590
aI321
aa(lp28
I0
aI590
aI321
aa(lp29
I0
aI591
aI321
aa(lp30
I0
aI591
aI321
aa(lp31
I0
aI591
aI320
aa(lp32
I0
aI592
aI320
aa(lp33
I0
aI598
aI321
aa(lp34
I0
aI601
aI321
aa(lp35
I0
aI603
aI321
aa(lp36
I0
aI606
aI321
aa(lp37
I0
aI609
aI321
aa(lp38
I0
aI613
aI321
aa(lp39
I0
aI617
aI321
aa(lp40
I0
aI623
aI321
aa(lp41
I0
aI626
aI320
aa(lp42
I0
aI629
aI319
aa(lp43
I0
aI631
aI319
aa(lp44
I0
aI633
aI319
aa(lp45
I0
aI635
aI319
aa(lp46
I0
aI636
aI319
aa(lp47
I0
aI638
aI318
aa(lp48
I0
aI640
aI317
aa(lp49
I0
aI644
aI315
aa(lp50
I0
aI649
aI315
aa(lp51
I0
aI652
aI313
aa(lp52
I0
aI655
aI313
aa(lp53
I0
aI656
aI312
aa(lp54
I0
aI656
aI312
aa(lp55
I0
aI656
aI312
aa(lp56
I0
aI657
aI312
aa(lp57
I0
aI657
aI311
aa(lp58
I0
aI657
aI310
aa(lp59
I0
aI685
aI286
aa(lp60
I0
aI712
aI274
aa(lp61
I0
aI782
aI251
aa(lp62
I0
aI876
aI198
aa(lp63
I0
aI951
aI158
aa(lp64
I0
aI1040
aI134
aa(lp65
I0
aI1092
aI113
aa(lp66
I0
aI1139
aI100
aa(lp67
I0
aI1175
aI85
aa(lp68
I0
aI1189
aI81
aa(lp69
I0
aI1193
aI78
aa(lp70
I0
aI1195
aI78
aa(lp71
I0
aI1196
aI78
aa(lp72
I0
aI1194
aI78
aa(lp73
I0
aI1189
aI78
aa(lp74
I0
aI1185
aI77
aa(lp75
I0
aI1183
aI77
aa(lp76
I0
aI1179
aI75
aa(lp77
I0
aI1177
aI75
aa(lp78
I0
aI1170
aI75
aa(lp79
I0
aI1162
aI74
aa(lp80
I0
aI1158
aI74
aa(lp81
I0
aI1154
aI74
aa(lp82
I0
aI1152
aI74
aa(lp83
I0
aI1151
aI74
aa(lp84
I0
aI1149
aI74
aa(lp85
I0
aI1148
aI74
aa(lp86
I0
aI1147
aI74
aa(lp87
I0
aI1147
aI74
aa(lp88
I0
aI1147
aI75
aa(lp89
I0
aI1147
aI75
aa(lp90
I0
aI1147
aI76
aa(lp91
I0
aI1139
aI82
aa(lp92
I0
aI1126
aI105
aa(lp93
I0
aI1115
aI123
aa(lp94
I0
aI1104
aI136
aa(lp95
I0
aI1088
aI150
aa(lp96
I0
aI1061
aI173
aa(lp97
I0
aI1044
aI185
aa(lp98
I0
aI1023
aI192
aa(lp99
I0
aI974
aI200
aa(lp100
I0
aI940
aI208
aa(lp101
I0
aI889
aI215
aa(lp102
I0
aI857
aI222
aa(lp103
I0
aI838
aI223
aa(lp104
I0
aI810
aI223
aa(lp105
I0
aI793
aI220
aa(lp106
I0
aI786
aI212
aa(lp107
I0
aI786
aI208
aa(lp108
I0
aI789
aI207
aa(lp109
I0
aI784
aI204
aa(lp110
I0
aI762
aI189
aa(lp111
I0
aI641
aI131
aa(lp112
I0
aI468
aI24
aa(lp113
I0
aI207
aI0
aa(lp114
I0
aI0
aI0
aa(lp115
I0
aI0
aI0
aa(lp116
I0
aI0
aI0
aa(lp117
I0
aI0
aI0
aa(lp118
I0
aI0
aI0
aa(lp119
I0
aI0
aI0
aa(lp120
I1
aI0
aI0
aa.