(lp0
S'a'
p1
a(lp2
(lp3
I527
aI443
aa(lp4
I527
aI442
aa(lp5
I527
aI442
aa(lp6
I526
aI442
aa(lp7
I524
aI444
aa(lp8
I519
aI446
aa(lp9
I504
aI456
aa(lp10
I491
aI469
aa(lp11
I470
aI475
aa(lp12
I439
aI485
aa(lp13
I423
aI493
aa(lp14
I405
aI505
aa(lp15
I376
aI522
aa(lp16
I357
aI537
aa(lp17
I341
aI546
aa(lp18
I319
aI555
aa(lp19
I287
aI564
aa(lp20
I271
aI573
aa(lp21
I258
aI584
aa(lp22
I243
aI598
aa(lp23
I225
aI606
aa(lp24
I218
aI614
aa(lp25
I215
aI617
aa(lp26
I215
aI619
aa(lp27
I219
aI619
aa(lp28
I212
aI623
aa(lp29
I207
aI624
aa(lp30
I181
aI630
aa(lp31
I156
aI640
aa(lp32
I112
aI648
aa(lp33
I79
aI658
aa(lp34
I54
aI668
aa(lp35
I14
aI677
aa(lp36
I0
aI685
aa(lp37
I0
aI694
aa(lp38
I0
aI703
aa(lp39
I0
aI714
aa(lp40
I0
aI729
aa(lp41
I0
aI741
aa(lp42
I0
aI750
aa(lp43
I0
aI753
aa(lp44
I0
aI756
aa(lp45
I0
aI756
aa(lp46
I0
aI757
aa(lp47
I0
aI757
aa(lp48
I0
aI757
aa(lp49
I0
aI757
aa(lp50
I0
aI759
aa(lp51
I0
aI767
aa(lp52
I0
aI767
aa(lp53
I0
aI767
aa(lp54
I0
aI767
aa(lp55
I0
aI767
aa(lp56
I0
aI767
aa(lp57
I0
aI767
aa(lp58
I0
aI767
aa(lp59
I0
aI767
aa(lp60
I0
aI767
aa(lp61
I0
aI767
aa(lp62
I0
aI767
aa(lp63
I0
aI767
aa(lp64
I0
aI767
aa(lp65
I0
aI767
aa(lp66
I0
aI767
aa(lp67
I0
aI767
aa(lp68
I0
aI767
aa(lp69
I0
aI767
aa(lp70
I0
aI767
aa(lp71
I0
aI767
aa(lp72
I0
aI767
aa(lp73
I0
aI767
aa(lp74
I0
aI767
aa(lp75
I0
aI767
aa(lp76
I0
aI767
aa(lp77
I0
aI767
aa(lp78
I0
aI767
aa(lp79
I0
aI767
aa(lp80
I0
aI767
aa(lp81
I0
aI767
aa(lp82
I0
aI767
aa(lp83
I0
aI767
aa(lp84
I0
aI767
aa(lp85
I0
aI767
aa(lp86
I0
aI767
aa(lp87
I0
aI767
aa(lp88
I0
aI767
aa(lp89
I1
aI767
aa(lp90
I3
aI767
aa(lp91
I5
aI767
aa(lp92
I6
aI767
aa(lp93
I7
aI767
aa(lp94
I7
aI767
aa(lp95
I7
aI767
aa(lp96
I8
aI767
aa(lp97
I11
aI765
aa(lp98
I13
aI761
aa(lp99
I15
aI757
aa(lp100
I18
aI752
aa(lp101
I21
aI749
aa(lp102
I24
aI745
aa(lp103
I29
aI742
aa(lp104
I34
aI737
aa(lp105
I39
aI726
aa(lp106
I46
aI710
aa(lp107
I52
aI701
aa(lp108
I56
aI694
aa(lp109
I60
aI689
aa(lp110
I63
aI679
aa(lp111
I70
aI668
aa(lp112
I77
aI659
aa(lp113
I88
aI652
aa(lp114
I97
aI647
aa(lp115
I106
aI643
aa(lp116
I110
aI638
aa(lp117
I113
aI634
aa(lp118
I116
aI631
aa(lp119
I119
aI628
aa(lp120
I122
aI622
aa(lp121
I125
aI616
aa(lp122
I130
aI609
aa(lp123
I139
aI603
aa(lp124
I149
aI598
aa(lp125
I156
aI595
aa(lp126
I159
aI590
aa(lp127
I162
aI585
aa(lp128
I165
aI579
aa(lp129
I169
aI567
aa(lp130
I175
aI558
aa(lp131
I183
aI550
aa(lp132
I195
aI540
aa(lp133
I205
aI515
aa(lp134
I216
aI489
aa(lp135
I221
aI471
aa(lp136
I226
aI433
aa(lp137
I230
aI401
aa(lp138
I234
aI385
aa(lp139
I235
aI375
aa(lp140
I235
aI369
aa(lp141
I236
aI366
aa(lp142
I236
aI366
aa(lp143
I238
aI364
aa(lp144
I238
aI364
aa(lp145
I236
aI362
aa(lp146
I222
aI344
aa(lp147
I206
aI330
aa(lp148
I197
aI316
aa(lp149
I190
aI286
aa(lp150
I182
aI260
aa(lp151
I175
aI245
aa(lp152
I165
aI232
aa(lp153
I150
aI209
aa(lp154
I130
aI187
aa(lp155
I120
aI176
aa(lp156
I113
aI170
aa(lp157
I109
aI166
aa(lp158
I107
aI162
aa(lp159
I105
aI157
aa(lp160
I103
aI153
aa(lp161
I100
aI148
aa(lp162
I98
aI143
aa(lp163
I96
aI139
aa(lp164
I95
aI137
aa(lp165
I95
aI135
aa(lp166
I94
aI134
aa(lp167
I94
aI132
aa(lp168
I91
aI130
aa(lp169
I87
aI130
aa(lp170
I70
aI127
aa(lp171
I63
aI122
aa(lp172
I53
aI109
aa(lp173
I35
aI95
aa(lp174
I11
aI87
aa(lp175
I0
aI81
aa(lp176
I0
aI76
aa(lp177
I0
aI72
aa(lp178
I0
aI65
aa(lp179
I0
aI52
aa(lp180
I0
aI39
aa(lp181
I0
aI31
aa(lp182
I0
aI26
aa(lp183
I0
aI25
aa(lp184
I0
aI23
aa(lp185
I0
aI23
aa(lp186
I0
aI23
aa(lp187
I5
aI18
aa(lp188
I6
aI16
aa(lp189
I7
aI16
aa(lp190
I7
aI15
aa(lp191
I10
aI8
aa(lp192
I13
aI5
aa(lp193
I16
aI3
aa(lp194
I25
aI1
aa(lp195
I36
aI0
aa(lp196
I43
aI0
aa(lp197
I49
aI0
aa(lp198
I56
aI0
aa(lp199
I68
aI0
aa(lp200
I81
aI0
aa(lp201
I88
aI0
aa(lp202
I94
aI0
aa(lp203
I99
aI0
aa(lp204
I109
aI1
aa(lp205
I119
aI3
aa(lp206
I126
aI5
aa(lp207
I130
aI7
aa(lp208
I133
aI11
aa(lp209
I135
aI15
aa(lp210
I138
aI24
aa(lp211
I142
aI32
aa(lp212
I148
aI38
aa(lp213
I152
aI42
aa(lp214
I156
aI46
aa(lp215
I157
aI49
aa(lp216
I160
aI52
aa(lp217
I160
aI54
aa(lp218
I161
aI56
aa(lp219
I162
aI63
aa(lp220
I163
aI68
aa(lp221
I165
aI74
aa(lp222
I166
aI78
aa(lp223
I169
aI82
aa(lp224
I170
aI85
aa(lp225
I171
aI88
aa(lp226
I172
aI91
aa(lp227
I172
aI92
aa(lp228
I173
aI93
aa(lp229
I173
aI93
aa(lp230
I173
aI93
aa(lp231
I176
aI102
aa(lp232
I178
aI104
aa(lp233
I179
aI106
aa(lp234
I180
aI108
aa(lp235
I183
aI110
aa(lp236
I186
aI111
aa(lp237
I188
aI112
aa(lp238
I193
aI113
aa(lp239
I196
aI115
aa(lp240
I200
aI116
aa(lp241
I202
aI117
aa(lp242
I205
aI120
aa(lp243
I209
aI124
aa(lp244
I219
aI137
aa(lp245
I238
aI147
aa(lp246
I250
aI155
aa(lp247
I259
aI161
aa(lp248
I269
aI169
aa(lp249
I292
aI179
aa(lp250
I306
aI189
aa(lp251
I316
aI197
aa(lp252
I328
aI201
aa(lp253
I350
aI206
aa(lp254
I367
aI208
aa(lp255
I379
aI213
aa(lp256
I396
aI215
aa(lp257
I414
aI219
aa(lp258
I427
aI220
aa(lp259
I433
aI222
aa(lp260
I434
aI222
aa(lp261
I436
aI222
aa(lp262
I436
aI220
aa(lp263
I436
aI216
aa(lp264
I436
aI216
aa(lp265
I436
aI216
aa(lp266
I449
aI221
aa(lp267
I457
aI238
aa(lp268
I463
aI253
aa(lp269
I468
aI262
aa(lp270
I472
aI270
aa(lp271
I474
aI284
aa(lp272
I477
aI307
aa(lp273
I480
aI326
aa(lp274
I483
aI338
aa(lp275
I484
aI356
aa(lp276
I491
aI379
aa(lp277
I503
aI396
aa(lp278
I519
aI404
aa(lp279
I532
aI419
aa(lp280
I543
aI440
aa(lp281
I556
aI465
aa(lp282
I574
aI482
aa(lp283
I605
aI499
aa(lp284
I629
aI517
aa(lp285
I652
aI540
aa(lp286
I697
aI553
aa(lp287
I726
aI564
aa(lp288
I759
aI576
aa(lp289
I799
aI586
aa(lp290
I818
aI595
aa(lp291
I836
aI601
aa(lp292
I873
aI606
aa(lp293
I902
aI609
aa(lp294
I933
aI613
aa(lp295
I970
aI619
aa(lp296
I988
aI624
aa(lp297
I993
aI624
aa(lp298
I993
aI624
aa(lp299
I995
aI630
aa(lp300
I1011
aI658
aa(lp301
I1054
aI695
aa(lp302
I1075
aI715
aa(lp303
I1091
aI742
aa(lp304
I1114
aI767
aa(lp305
I1152
aI767
aa(lp306
I1181
aI767
aa(lp307
I1201
aI767
aa(lp308
I1221
aI767
aa(lp309
I1257
aI767
aa(lp310
I1283
aI767
aa(lp311
I1293
aI767
aa(lp312
I1303
aI767
aa(lp313
I1310
aI767
aa(lp314
I1321
aI767
aa(lp315
I1338
aI767
aa(lp316
I1350
aI767
aa(lp317
I1360
aI766
aa(lp318
I1365
aI766
aa(lp319
I1365
aI765
aa(lp320
I1365
aI761
aa(lp321
I1365
aI755
aa(lp322
I1365
aI746
aa(lp323
I1365
aI734
aa(lp324
I1365
aI728
aa(lp325
I1365
aI719
aa(lp326
I1365
aI712
aa(lp327
I1365
aI704
aa(lp328
I1365
aI698
aa(lp329
I1365
aI687
aa(lp330
I1365
aI682
aa(lp331
I1365
aI675
aa(lp332
I1365
aI668
aa(lp333
I1365
aI658
aa(lp334
I1365
aI643
aa(lp335
I1365
aI615
aa(lp336
I1365
aI597
aa(lp337
I1365
aI584
aa(lp338
I1365
aI577
aa(lp339
I1365
aI577
aa(lp340
I1359
aI577
aa(lp341
I1337
aI577
aa(lp342
I1315
aI577
aa(lp343
I1300
aI577
aa(lp344
I1264
aI579
aa(lp345
I1233
aI582
aa(lp346
I1186
aI588
aa(lp347
I1158
aI593
aa(lp348
I1140
aI599
aa(lp349
I1115
aI606
aa(lp350
I1094
aI615
aa(lp351
I1086
aI633
aa(lp352
I1082
aI652
aa(lp353
I1081
aI663
aa(lp354
I1081
aI673
aa(lp355
I1081
aI686
aa(lp356
I1089
aI710
aa(lp357
I1108
aI726
aa(lp358
I1133
aI736
aa(lp359
I1149
aI745
aa(lp360
I1168
aI749
aa(lp361
I1206
aI750
aa(lp362
I1235
aI747
aa(lp363
I1270
aI737
aa(lp364
I1302
aI724
aa(lp365
I1317
aI702
aa(lp366
I1328
aI678
aa(lp367
I1338
aI659
aa(lp368
I1344
aI643
aa(lp369
I1347
aI619
aa(lp370
I1347
aI594
aa(lp371
I1343
aI574
aa(lp372
I1334
aI559
aa(lp373
I1326
aI540
aa(lp374
I1315
aI518
aa(lp375
I1297
aI502
aa(lp376
I1262
aI494
aa(lp377
I1243
aI490
aa(lp378
I1219
aI488
aa(lp379
I1180
aI490
aa(lp380
I1167
aI495
aa(lp381
I1156
aI506
aa(lp382
I1140
aI525
aa(lp383
I1123
aI547
aa(lp384
I1113
aI564
aa(lp385
I1108
aI578
aa(lp386
I1108
aI603
aa(lp387
I1108
aI630
aa(lp388
I1112
aI645
aa(lp389
I1131
aI662
aa(lp390
I1148
aI685
aa(lp391
I1162
aI710
aa(lp392
I1176
aI723
aa(lp393
I1200
aI731
aa(lp394
I1235
aI737
aa(lp395
I1256
aI738
aa(lp396
I1271
aI738
aa(lp397
I1295
aI735
aa(lp398
I1309
aI731
aa(lp399
I1318
aI723
aa(lp400
I1326
aI711
aa(lp401
I1335
aI693
aa(lp402
I1347
aI676
aa(lp403
I1354
aI662
aa(lp404
I1354
aI637
aa(lp405
I1348
aI608
aa(lp406
I1333
aI587
aa(lp407
I1320
aI570
aa(lp408
I1310
aI551
aa(lp409
I1295
aI535
aa(lp410
I1275
aI526
aa(lp411
I1250
aI522
aa(lp412
I1237
aI522
aa(lp413
I1226
aI526
aa(lp414
I1209
aI537
aa(lp415
I1185
aI557
aa(lp416
I1168
aI573
aa(lp417
I1161
aI588
aa(lp418
I1157
aI613
aa(lp419
I1155
aI640
aa(lp420
I1155
aI656
aa(lp421
I1155
aI667
aa(lp422
I1156
aI681
aa(lp423
I1168
aI705
aa(lp424
I1194
aI722
aa(lp425
I1228
aI732
aa(lp426
I1249
aI737
aa(lp427
I1279
aI741
aa(lp428
I1305
aI744
aa(lp429
I1317
aI744
aa(lp430
I1324
aI744
aa(lp431
I1330
aI742
aa(lp432
I1336
aI739
aa(lp433
I1348
aI731
aa(lp434
I1356
aI707
aa(lp435
I1360
aI682
aa(lp436
I1361
aI659
aa(lp437
I1361
aI613
aa(lp438
I1345
aI581
aa(lp439
I1325
aI556
aa(lp440
I1307
aI542
aa(lp441
I1296
aI527
aa(lp442
I1287
aI510
aa(lp443
I1278
aI504
aa(lp444
I1272
aI504
aa(lp445
I1264
aI504
aa(lp446
I1247
aI507
aa(lp447
I1234
aI516
aa(lp448
I1218
aI529
aa(lp449
I1186
aI542
aa(lp450
I1165
aI553
aa(lp451
I1155
aI568
aa(lp452
I1150
aI591
aa(lp453
I1150
aI610
aa(lp454
I1150
aI625
aa(lp455
I1153
aI639
aa(lp456
I1170
aI656
aa(lp457
I1201
aI678
aa(lp458
I1224
aI690
aa(lp459
I1246
aI698
aa(lp460
I1273
aI703
aa(lp461
I1293
aI706
aa(lp462
I1303
aI706
aa(lp463
I1308
aI706
aa(lp464
I1311
aI706
aa(lp465
I1317
aI704
aa(lp466
I1327
aI696
aa(lp467
I1343
aI666
aa(lp468
I1355
aI636
aa(lp469
I1358
aI604
aa(lp470
I1358
aI552
aa(lp471
I1351
aI521
aa(lp472
I1330
aI501
aa(lp473
I1305
aI486
aa(lp474
I1292
aI476
aa(lp475
I1282
aI469
aa(lp476
I1273
aI464
aa(lp477
I1259
aI464
aa(lp478
I1231
aI464
aa(lp479
I1211
aI472
aa(lp480
I1183
aI483
aa(lp481
I1151
aI494
aa(lp482
I1136
aI505
aa(lp483
I1127
aI518
aa(lp484
I1120
aI537
aa(lp485
I1112
aI567
aa(lp486
I1107
aI585
aa(lp487
I1107
aI599
aa(lp488
I1107
aI620
aa(lp489
I1113
aI645
aa(lp490
I1123
aI663
aa(lp491
I1137
aI675
aa(lp492
I1153
aI692
aa(lp493
I1190
aI703
aa(lp494
I1212
aI715
aa(lp495
I1224
aI716
aa(lp496
I1234
aI715
aa(lp497
I1243
aI711
aa(lp498
I1254
aI704
aa(lp499
I1262
aI693
aa(lp500
I1270
aI679
aa(lp501
I1275
aI651
aa(lp502
I1281
aI616
aa(lp503
I1288
aI580
aa(lp504
I1288
aI517
aa(lp505
I1289
aI465
aa(lp506
I1289
aI394
aa(lp507
I1289
aI346
aa(lp508
I1289
aI275
aa(lp509
I1286
aI230
aa(lp510
I1282
aI173
aa(lp511
I1277
aI118
aa(lp512
I1272
aI87
aa(lp513
I1266
aI46
aa(lp514
I1260
aI2
aa(lp515
I1255
aI0
aa(lp516
I1253
aI0
aa(lp517
I1253
aI0
aa(lp518
I1253
aI0
aa(lp519
I1253
aI0
aa(lp520
I1254
aI0
aa(lp521
I1260
aI0
aa(lp522
I1265
aI0
aa(lp523
I1269
aI0
aa(lp524
I1275
aI0
aa(lp525
I1285
aI0
aa(lp526
I1295
aI0
aa(lp527
I1302
aI0
aa(lp528
I1309
aI0
aa(lp529
I1321
aI3
aa(lp530
I1339
aI6
aa(lp531
I1348
aI10
aa(lp532
I1353
aI13
aa(lp533
I1356
aI17
aa(lp534
I1359
aI21
aa(lp535
I1361
aI27
aa(lp536
I1362
aI37
aa(lp537
I1362
aI50
aa(lp538
I1362
aI60
aa(lp539
I1362
aI69
aa(lp540
I1362
aI81
aa(lp541
I1360
aI99
aa(lp542
I1355
aI115
aa(lp543
I1350
aI125
aa(lp544
I1340
aI134
aa(lp545
I1321
aI145
aa(lp546
I1300
aI155
aa(lp547
I1283
aI170
aa(lp548
I1268
aI179
aa(lp549
I1234
aI186
aa(lp550
I1211
aI190
aa(lp551
I1188
aI192
aa(lp552
I1147
aI194
aa(lp553
I1122
aI194
aa(lp554
I1073
aI193
aa(lp555
I1046
aI190
aa(lp556
I997
aI185
aa(lp557
I959
aI181
aa(lp558
I898
aI175
aa(lp559
I865
aI168
aa(lp560
I810
aI162
aa(lp561
I774
aI152
aa(lp562
I732
aI151
aa(lp563
I697
aI149
aa(lp564
I686
aI152
aa(lp565
I673
aI160
aa(lp566
I657
aI169
aa(lp567
I642
aI177
aa(lp568
I633
aI183
aa(lp569
I627
aI191
aa(lp570
I622
aI202
aa(lp571
I615
aI225
aa(lp572
I609
aI240
aa(lp573
I605
aI254
aa(lp574
I591
aI256
aa(lp575
I580
aI257
aa(lp576
I560
aI257
aa(lp577
I535
aI257
aa(lp578
I476
aI255
aa(lp579
I422
aI252
aa(lp580
I365
aI249
aa(lp581
I295
aI249
aa(lp582
I244
aI249
aa(lp583
I174
aI256
aa(lp584
I143
aI270
aa(lp585
I98
aI293
aa(lp586
I65
aI310
aa(lp587
I51
aI321
aa(lp588
I43
aI330
aa(lp589
I34
aI341
aa(lp590
I27
aI357
aa(lp591
I20
aI387
aa(lp592
I18
aI405
aa(lp593
I18
aI428
aa(lp594
I18
aI468
aa(lp595
I21
aI490
aa(lp596
I26
aI511
aa(lp597
I29
aI546
aa(lp598
I36
aI570
aa(lp599
I41
aI587
aa(lp600
I47
aI600
aa(lp601
I54
aI612
aa(lp602
I63
aI620
aa(lp603
I75
aI620
aa(lp604
I96
aI618
aa(lp605
I110
aI612
aa(lp606
I119
aI606
aa(lp607
I127
aI601
aa(lp608
I139
aI596
aa(lp609
I157
aI591
aa(lp610
I166
aI585
aa(lp611
I174
aI575
aa(lp612
I183
aI558
aa(lp613
I196
aI545
aa(lp614
I208
aI532
aa(lp615
I216
aI514
aa(lp616
I216
aI482
aa(lp617
I215
aI459
aa(lp618
I199
aI428
aa(lp619
I186
aI381
aa(lp620
I170
aI353
aa(lp621
I157
aI302
aa(lp622
I146
aI264
aa(lp623
I132
aI228
aa(lp624
I118
aI174
aa(lp625
I104
aI146
aa(lp626
I91
aI115
aa(lp627
I86
aI64
aa(lp628
I80
aI40
aa(lp629
I80
aI20
aa(lp630
I80
aI0
aa(lp631
I86
aI0
aa(lp632
I110
aI0
aa(lp633
I135
aI0
aa(lp634
I151
aI0
aa(lp635
I166
aI0
aa(lp636
I177
aI0
aa(lp637
I178
aI0
aa(lp638
I200
aI3
aa(lp639
I209
aI7
aa(lp640
I244
aI17
aa(lp641
I279
aI38
aa(lp642
I320
aI70
aa(lp643
I363
aI91
aa(lp644
I377
aI108
aa(lp645
I390
aI126
aa(lp646
I400
aI157
aa(lp647
I410
aI178
aa(lp648
I417
aI199
aa(lp649
I423
aI235
aa(lp650
I423
aI275
aa(lp651
I423
aI313
aa(lp652
I409
aI370
aa(lp653
I395
aI402
aa(lp654
I377
aI428
aa(lp655
I363
aI449
aa(lp656
I345
aI459
aa(lp657
I319
aI467
aa(lp658
I301
aI476
aa(lp659
I291
aI488
aa(lp660
I278
aI500
aa(lp661
I269
aI513
aa(lp662
I261
aI526
aa(lp663
I255
aI533
aa(lp664
I253
aI533
aa(lp665
I267
aI535
aa(lp666
I303
aI543
aa(lp667
I343
aI565
aa(lp668
I411
aI593
aa(lp669
I450
aI613
aa(lp670
I513
aI627
aa(lp671
I565
aI642
aa(lp672
I638
aI654
aa(lp673
I675
aI660
aa(lp674
I716
aI660
aa(lp675
I760
aI652
aa(lp676
I781
aI639
aa(lp677
I802
aI625
aa(lp678
I829
aI604
aa(lp679
I846
aI574
aa(lp680
I854
aI554
aa(lp681
I863
aI524
aa(lp682
I871
aI474
aa(lp683
I874
aI432
aa(lp684
I880
aI369
aa(lp685
I880
aI321
aa(lp686
I880
aI249
aa(lp687
I880
aI196
aa(lp688
I879
aI161
aa(lp689
I871
aI98
aa(lp690
I862
aI64
aa(lp691
I855
aI30
aa(lp692
I849
aI0
aa(lp693
I840
aI0
aa(lp694
I831
aI0
aa(lp695
I822
aI0
aa(lp696
I806
aI0
aa(lp697
I791
aI0
aa(lp698
I769
aI0
aa(lp699
I736
aI3
aa(lp700
I712
aI16
aa(lp701
I636
aI52
aa(lp702
I585
aI85
aa(lp703
I520
aI112
aa(lp704
I496
aI171
aa(lp705
I479
aI214
aa(lp706
I467
aI247
aa(lp707
I463
aI310
aa(lp708
I463
aI347
aa(lp709
I469
aI408
aa(lp710
I484
aI470
aa(lp711
I501
aI522
aa(lp712
I527
aI590
aa(lp713
I576
aI627
aa(lp714
I613
aI682
aa(lp715
I646
aI717
aa(lp716
I711
aI731
aa(lp717
I750
aI739
aa(lp718
I769
aI742
aa(lp719
I786
aI742
aa(lp720
I811
aI740
aa(lp721
I824
aI736
aa(lp722
I836
aI731
aa(lp723
I847
aI726
aa(lp724
I855
aI722
aa(lp725
I861
aI719
aa(lp726
I860
aI719
aa(lp727
I860
aI718
aa(lp728
I859
aI717
aa(lp729
I858
aI716
aa(lp730
I858
aI709
aa(lp731
I855
aI660
aa(lp732
I855
aI607
aa(lp733
I855
aI528
aa(lp734
I856
aI480
aa(lp735
I867
aI415
aa(lp736
I875
aI370
aa(lp737
I890
aI329
aa(lp738
I897
aI276
aa(lp739
I904
aI246
aa(lp740
I909
aI227
aa(lp741
I917
aI206
aa(lp742
I926
aI173
aa(lp743
I945
aI149
aa(lp744
I980
aI130
aa(lp745
I1005
aI114
aa(lp746
I1017
aI97
aa(lp747
I1027
aI79
aa(lp748
I1046
aI66
aa(lp749
I1082
aI58
aa(lp750
I1107
aI51
aa(lp751
I1126
aI50
aa(lp752
I1155
aI50
aa(lp753
I1170
aI53
aa(lp754
I1178
aI59
aa(lp755
I1184
aI77
aa(lp756
I1190
aI99
aa(lp757
I1196
aI112
aa(lp758
I1201
aI125
aa(lp759
I1205
aI135
aa(lp760
I1208
aI153
aa(lp761
I1209
aI174
aa(lp762
I1211
aI188
aa(lp763
I1213
aI206
aa(lp764
I1213
aI237
aa(lp765
I1215
aI261
aa(lp766
I1215
aI295
aa(lp767
I1215
aI344
aa(lp768
I1213
aI370
aa(lp769
I1204
aI391
aa(lp770
I1193
aI421
aa(lp771
I1177
aI441
aa(lp772
I1157
aI455
aa(lp773
I1115
aI466
aa(lp774
I1072
aI478
aa(lp775
I1003
aI485
aa(lp776
I968
aI487
aa(lp777
I912
aI487
aa(lp778
I867
aI481
aa(lp779
I792
aI468
aa(lp780
I750
aI458
aa(lp781
I672
aI445
aa(lp782
I603
aI424
aa(lp783
I546
aI403
aa(lp784
I485
aI383
aa(lp785
I428
aI375
aa(lp786
I368
aI368
aa(lp787
I326
aI365
aa(lp788
I303
aI365
aa(lp789
I270
aI365
aa(lp790
I238
aI372
aa(lp791
I221
aI386
aa(lp792
I206
aI412
aa(lp793
I173
aI436
aa(lp794
I143
aI457
aa(lp795
I130
aI493
aa(lp796
I118
aI535
aa(lp797
I102
aI557
aa(lp798
I84
aI587
aa(lp799
I68
aI624
aa(lp800
I54
aI643
aa(lp801
I49
aI660
aa(lp802
I47
aI679
aa(lp803
I47
aI707
aa(lp804
I52
aI729
aa(lp805
I72
aI739
aa(lp806
I86
aI744
aa(lp807
I95
aI749
aa(lp808
I97
aI749
aa(lp809
I116
aI751
aa(lp810
I127
aI751
aa(lp811
I137
aI752
aa(lp812
I153
aI753
aa(lp813
I171
aI754
aa(lp814
I186
aI754
aa(lp815
I212
aI752
aa(lp816
I234
aI747
aa(lp817
I252
aI733
aa(lp818
I294
aI707
aa(lp819
I321
aI684
aa(lp820
I341
aI666
aa(lp821
I363
aI636
aa(lp822
I392
aI601
aa(lp823
I415
aI572
aa(lp824
I427
aI518
aa(lp825
I439
aI471
aa(lp826
I444
aI421
aa(lp827
I445
aI360
aa(lp828
I445
aI319
aa(lp829
I440
aI246
aa(lp830
I427
aI216
aa(lp831
I405
aI188
aa(lp832
I364
aI155
aa(lp833
I336
aI127
aa(lp834
I327
aI115
aa(lp835
I326
aI111
aa(lp836
I326
aI111
aa(lp837
I329
aI109
aa(lp838
I343
aI107
aa(lp839
I360
aI105
aa(lp840
I390
aI105
aa(lp841
I438
aI111
aa(lp842
I487
aI127
aa(lp843
I532
aI163
aa(lp844
I554
aI202
aa(lp845
I569
aI232
aa(lp846
I584
aI271
aa(lp847
I590
aI316
aa(lp848
I591
aI341
aa(lp849
I591
aI378
aa(lp850
I591
aI417
aa(lp851
I588
aI447
aa(lp852
I580
aI500
aa(lp853
I568
aI544
aa(lp854
I549
aI579
aa(lp855
I520
aI628
aa(lp856
I461
aI658
aa(lp857
I403
aI680
aa(lp858
I313
aI695
aa(lp859
I261
aI698
aa(lp860
I183
aI695
aa(lp861
I122
aI676
aa(lp862
I72
aI646
aa(lp863
I46
aI578
aa(lp864
I14
aI504
aa(lp865
I0
aI399
aa(lp866
I0
aI285
aa(lp867
I36
aI210
aa(lp868
I76
aI108
aa(lp869
I118
aI50
aa(lp870
I229
aI21
aa(lp871
I301
aI0
aa(lp872
I396
aI0
aa(lp873
I453
aI7
aa(lp874
I519
aI31
aa(lp875
I581
aI64
aa(lp876
I642
aI130
aa(lp877
I672
aI183
aa(lp878
I694
aI254
aa(lp879
I708
aI302
aa(lp880
I716
aI365
aa(lp881
I716
aI426
aa(lp882
I708
aI462
aa(lp883
I696
aI497
aa(lp884
I672
aI538
aa(lp885
I632
aI562
aa(lp886
I566
aI579
aa(lp887
I523
aI592
aa(lp888
I461
aI599
aa(lp889
I428
aI599
aa(lp890
I363
aI596
aa(lp891
I326
aI582
aa(lp892
I279
aI566
aa(lp893
I258
aI530
aa(lp894
I252
aI487
aa(lp895
I251
aI382
aa(lp896
I264
aI278
aa(lp897
I364
aI146
aa(lp898
I456
aI75
aa(lp899
I604
aI0
aa(lp900
I696
aI0
aa(lp901
I827
aI0
aa(lp902
I968
aI7
aa(lp903
I1021
aI49
aa(lp904
I1050
aI105
aa(lp905
I1018
aI122
aa(lp906
I940
aI138
aa(lp907
I812
aI151
aa(lp908
I726
aI155
aa(lp909
I607
aI151
aa(lp910
I494
aI131
aa(lp911
I436
aI110
aa(lp912
I347
aI59
aa(lp913
I304
aI0
aa(lp914
I268
aI0
aa(lp915
I262
aI0
aa(lp916
I280
aI0
aa(lp917
I323
aI0
aa(lp918
I396
aI0
aa(lp919
I468
aI0
aa(lp920
I516
aI0
aa(lp921
I582
aI13
aa(lp922
I636
aI38
aa(lp923
I684
aI93
aa(lp924
I707
aI138
aa(lp925
I725
aI207
aa(lp926
I725
aI279
aa(lp927
I724
aI338
aa(lp928
I703
aI413
aa(lp929
I658
aI466
aa(lp930
I577
aI539
aa(lp931
I525
aI579
aa(lp932
I441
aI601
aa(lp933
I404
aI611
aa(lp934
I377
aI612
aa(lp935
I345
aI610
aa(lp936
I330
aI604
aa(lp937
I324
aI597
aa(lp938
I323
aI585
aa(lp939
I323
aI537
aa(lp940
I367
aI494
aa(lp941
I453
aI423
aa(lp942
I557
aI387
aa(lp943
I662
aI367
aa(lp944
I777
aI367
aa(lp945
I852
aI383
aa(lp946
I912
aI415
aa(lp947
I947
aI458
aa(lp948
I974
aI482
aa(lp949
I974
aI497
aa(lp950
I960
aI514
aa(lp951
I937
aI524
aa(lp952
I873
aI527
aa(lp953
I873
aI489
aa(lp954
I893
aI456
aa(lp955
I946
aI355
aa(lp956
I994
aI285
aa(lp957
I1097
aI180
aa(lp958
I1184
aI125
aa(lp959
I1315
aI37
aa(lp960
I1365
aI0
aa(lp961
I1365
aI0
aa(lp962
I1365
aI0
aa(lp963
I1365
aI0
aa(lp964
I1365
aI0
aa(lp965
I1365
aI0
aa(lp966
I1365
aI0
aa(lp967
I1365
aI0
aa(lp968
I1365
aI1
aa(lp969
I1337
aI2
aa(lp970
I1317
aI2
aa(lp971
I1291
aI2
aa(lp972
I1275
aI0
aa(lp973
I1255
aI0
aa(lp974
I1232
aI0
aa(lp975
I1223
aI0
aa(lp976
I1220
aI0
aa(lp977
I1220
aI0
aa(lp978
I1241
aI0
aa(lp979
I1301
aI0
aa(lp980
I1341
aI0
aa(lp981
I1365
aI0
aa(lp982
I1365
aI0
aa(lp983
I1365
aI0
aa(lp984
I1365
aI7
aa(lp985
I1365
aI39
aa(lp986
I1365
aI112
aa(lp987
I1365
aI170
aa(lp988
I1365
aI265
aa(lp989
I1365
aI319
aa(lp990
I1337
aI385
aa(lp991
I1288
aI427
aa(lp992
I1198
aI444
aa(lp993
I1132
aI455
aa(lp994
I1054
aI457
aa(lp995
I972
aI456
aa(lp996
I933
aI443
aa(lp997
I907
aI412
aa(lp998
I875
aI351
aa(lp999
I861
aI307
aa(lp1000
I871
aI218
aa(lp1001
I911
aI167
aa(lp1002
I946
aI85
aa(lp1003
I981
aI36
aa(lp1004
I1065
aI7
aa(lp1005
I1119
aI0
aa(lp1006
I1199
aI0
aa(lp1007
I1239
aI11
aa(lp1008
I1287
aI31
aa(lp1009
I1321
aI54
aa(lp1010
I1340
aI111
aa(lp1011
I1349
aI149
aa(lp1012
I1349
aI175
aa(lp1013
I1346
aI214
aa(lp1014
I1325
aI240
aa(lp1015
I1265
aI256
aa(lp1016
I1231
aI267
aa(lp1017
I1197
aI273
aa(lp1018
I1145
aI275
aa(lp1019
I1123
aI273
aa(lp1020
I1106
aI265
aa(lp1021
I1089
aI247
aa(lp1022
I1088
aI195
aa(lp1023
I1118
aI135
aa(lp1024
I1171
aI7
aa(lp1025
I1243
aI0
aa(lp1026
I1359
aI0
aa(lp1027
I1365
aI0
aa(lp1028
I1365
aI0
aa(lp1029
I1365
aI0
aa(lp1030
I1365
aI0
aa(lp1031
I1365
aI6
aa(lp1032
I1365
aI15
aa(lp1033
I1365
aI33
aa(lp1034
I1365
aI72
aa(lp1035
I1365
aI100
aa(lp1036
I1362
aI119
aa(lp1037
I1345
aI135
aa(lp1038
I1297
aI158
aa(lp1039
I1260
aI174
aa(lp1040
I1194
aI174
aa(lp1041
I1163
aI174
aa(lp1042
I1136
aI165
aa(lp1043
I1098
aI147
aa(lp1044
I1080
aI127
aa(lp1045
I1077
aI111
aa(lp1046
I1077
aI92
aa(lp1047
I1092
aI40
aa(lp1048
I1145
aI12
aa(lp1049
I1177
aI0
aa(lp1050
I1208
aI0
aa(lp1051
I1264
aI0
aa(lp1052
I1297
aI0
aa(lp1053
I1339
aI0
aa(lp1054
I1359
aI0
aa(lp1055
I1365
aI0
aa(lp1056
I1365
aI2
aa(lp1057
I1365
aI7
aa(lp1058
I1365
aI13
aa(lp1059
I1360
aI23
aa(lp1060
I1343
aI46
aa(lp1061
I1292
aI72
aa(lp1062
I1223
aI91
aa(lp1063
I1147
aI102
aa(lp1064
I1095
aI107
aa(lp1065
I1043
aI107
aa(lp1066
I1029
aI103
aa(lp1067
I1024
aI97
aa(lp1068
I1022
aI88
aa(lp1069
I1022
aI51
aa(lp1070
I1042
aI23
aa(lp1071
I1104
aI7
aa(lp1072
I1144
aI0
aa(lp1073
I1223
aI0
aa(lp1074
I1280
aI0
aa(lp1075
I1350
aI0
aa(lp1076
I1365
aI0
aa(lp1077
I1365
aI0
aa(lp1078
I1365
aI0
aa(lp1079
I1365
aI0
aa(lp1080
I1364
aI2
aa(lp1081
I1360
aI7
aa(lp1082
I1350
aI15
aa(lp1083
I1333
aI30
aa(lp1084
I1287
aI62
aa(lp1085
I1244
aI91
aa(lp1086
I1170
aI105
aa(lp1087
I1142
aI114
aa(lp1088
I1103
aI118
aa(lp1089
I1070
aI119
aa(lp1090
I1060
aI119
aa(lp1091
I1058
aI117
aa(lp1092
I1058
aI114
aa(lp1093
I1058
aI106
aa(lp1094
I1076
aI73
aa(lp1095
I1127
aI50
aa(lp1096
I1157
aI38
aa(lp1097
I1216
aI31
aa(lp1098
I1254
aI31
aa(lp1099
I1269
aI33
aa(lp1100
I1279
aI39
aa(lp1101
I1284
aI49
aa(lp1102
I1284
aI74
aa(lp1103
I1273
aI103
aa(lp1104
I1251
aI127
aa(lp1105
I1209
aI161
aa(lp1106
I1128
aI214
aa(lp1107
I1045
aI248
aa(lp1108
I951
aI291
aa(lp1109
I834
aI354
aa(lp1110
I715
aI386
aa(lp1111
I625
aI410
aa(lp1112
I524
aI435
aa(lp1113
I487
aI460
aa(lp1114
I450
aI474
aa(lp1115
I424
aI486
aa(lp1116
I414
aI494
aa(lp1117
I410
aI501
aa(lp1118
I408
aI506
aa(lp1119
I409
aI512
aa(lp1120
I409
aI512
aa(lp1121
I407
aI513
aa(lp1122
I395
aI519
aa(lp1123
I355
aI531
aa(lp1124
I303
aI543
aa(lp1125
I213
aI544
aa(lp1126
I89
aI544
aa(lp1127
I0
aI546
aa(lp1128
I0
aI558
aa(lp1129
I0
aI578
aa(lp1130
I0
aI596
aa(lp1131
I0
aI616
aa(lp1132
I0
aI642
aa(lp1133
I0
aI690
aa(lp1134
I0
aI722
aa(lp1135
I0
aI755
aa(lp1136
I0
aI767
aa(lp1137
I0
aI767
aa(lp1138
I0
aI767
aa(lp1139
I0
aI767
aa(lp1140
I0
aI767
aa(lp1141
I0
aI767
aa(lp1142
I0
aI767
aa(lp1143
I1
aI767
aa(lp1144
I8
aI766
aa(lp1145
I34
aI761
aa(lp1146
I56
aI748
aa(lp1147
I106
aI718
aa(lp1148
I148
aI696
aa(lp1149
I193
aI677
aa(lp1150
I256
aI655
aa(lp1151
I329
aI599
aa(lp1152
I379
aI554
aa(lp1153
I397
aI487
aa(lp1154
I403
aI433
aa(lp1155
I402
aI396
aa(lp1156
I384
aI337
aa(lp1157
I345
aI310
aa(lp1158
I278
aI297
aa(lp1159
I239
aI295
aa(lp1160
I182
aI295
aa(lp1161
I146
aI312
aa(lp1162
I20
aI404
aa(lp1163
I0
aI501
aa(lp1164
I0
aI660
aa(lp1165
I0
aI767
aa(lp1166
I0
aI767
aa(lp1167
I0
aI767
aa(lp1168
I1
aI767
aa(lp1169
I23
aI767
aa(lp1170
I63
aI767
aa(lp1171
I110
aI767
aa(lp1172
I141
aI760
aa(lp1173
I205
aI742
aa(lp1174
I251
aI709
aa(lp1175
I338
aI646
aa(lp1176
I388
aI610
aa(lp1177
I426
aI567
aa(lp1178
I445
aI500
aa(lp1179
I445
aI458
aa(lp1180
I426
aI366
aa(lp1181
I390
aI302
aa(lp1182
I355
aI206
aa(lp1183
I290
aI145
aa(lp1184
I218
aI58
aa(lp1185
I175
aI24
aa(lp1186
I84
aI0
aa(lp1187
I31
aI0
aa(lp1188
I0
aI0
aa(lp1189
I0
aI0
aa(lp1190
I0
aI0
aa(lp1191
I0
aI0
aa(lp1192
I0
aI0
aa(lp1193
I0
aI0
aa(lp1194
I0
aI0
aa(lp1195
I0
aI0
aa(lp1196
I0
aI2
aa(lp1197
I0
aI10
aa(lp1198
I0
aI24
aa(lp1199
I0
aI45
aa(lp1200
I0
aI91
aa(lp1201
I0
aI125
aa(lp1202
I4
aI180
aa(lp1203
I1
aI178
aa(lp1204
I0
aI132
aa(lp1205
I0
aI65
aa(lp1206
I0
aI0
aa(lp1207
I0
aI0
aa(lp1208
I0
aI0
aa(lp1209
I15
aI0
aa(lp1210
I80
aI0
aa(lp1211
I119
aI0
aa(lp1212
I146
aI0
aa(lp1213
I167
aI0
aa(lp1214
I199
aI1
aa(lp1215
I231
aI18
aa(lp1216
I273
aI60
aa(lp1217
I326
aI93
aa(lp1218
I348
aI137
aa(lp1219
I362
aI197
aa(lp1220
I368
aI252
aa(lp1221
I368
aI342
aa(lp1222
I354
aI423
aa(lp1223
I313
aI511
aa(lp1224
I227
aI547
aa(lp1225
I172
aI573
aa(lp1226
I83
aI587
aa(lp1227
I39
aI587
aa(lp1228
I0
aI580
aa(lp1229
I0
aI561
aa(lp1230
I0
aI534
aa(lp1231
I0
aI472
aa(lp1232
I0
aI422
aa(lp1233
I0
aI318
aa(lp1234
I3
aI232
aa(lp1235
I30
aI119
aa(lp1236
I60
aI77
aa(lp1237
I77
aI65
aa(lp1238
I89
aI65
aa(lp1239
I100
aI69
aa(lp1240
I107
aI74
aa(lp1241
I121
aI84
aa(lp1242
I149
aI105
aa(lp1243
I172
aI136
aa(lp1244
I185
aI148
aa(lp1245
I201
aI158
aa(lp1246
I240
aI171
aa(lp1247
I270
aI193
aa(lp1248
I316
aI222
aa(lp1249
I365
aI242
aa(lp1250
I430
aI263
aa(lp1251
I500
aI297
aa(lp1252
I588
aI331
aa(lp1253
I682
aI346
aa(lp1254
I757
aI358
aa(lp1255
I828
aI368
aa(lp1256
I848
aI372
aa(lp1257
I858
aI372
aa(lp1258
I859
aI371
aa(lp1259
I864
aI371
aa(lp1260
I878
aI370
aa(lp1261
I904
aI371
aa(lp1262
I974
aI389
aa(lp1263
I1036
aI440
aa(lp1264
I1129
aI491
aa(lp1265
I1236
aI573
aa(lp1266
I1300
aI654
aa(lp1267
I1334
aI729
aa(lp1268
I1363
aI767
aa(lp1269
I1365
aI767
aa(lp1270
I1365
aI767
aa(lp1271
I1348
aI767
aa(lp1272
I1327
aI767
aa(lp1273
I1304
aI767
aa(lp1274
I1256
aI767
aa(lp1275
I1205
aI767
aa(lp1276
I1129
aI767
aa(lp1277
I1091
aI767
aa(lp1278
I1028
aI767
aa(lp1279
I991
aI764
aa(lp1280
I928
aI744
aa(lp1281
I900
aI719
aa(lp1282
I878
aI692
aa(lp1283
I853
aI637
aa(lp1284
I844
aI569
aa(lp1285
I853
aI431
aa(lp1286
I892
aI287
aa(lp1287
I924
aI194
aa(lp1288
I960
aI66
aa(lp1289
I1015
aI18
aa(lp1290
I1085
aI0
aa(lp1291
I1123
aI0
aa(lp1292
I1179
aI0
aa(lp1293
I1214
aI13
aa(lp1294
I1234
aI26
aa(lp1295
I1268
aI50
aa(lp1296
I1305
aI104
aa(lp1297
I1322
aI139
aa(lp1298
I1330
aI181
aa(lp1299
I1330
aI240
aa(lp1300
I1323
aI326
aa(lp1301
I1277
aI413
aa(lp1302
I1200
aI497
aa(lp1303
I1154
aI549
aa(lp1304
I1086
aI582
aa(lp1305
I1021
aI612
aa(lp1306
I955
aI640
aa(lp1307
I892
aI652
aa(lp1308
I863
aI652
aa(lp1309
I818
aI636
aa(lp1310
I793
aI622
aa(lp1311
I776
aI608
aa(lp1312
I758
aI594
aa(lp1313
I732
aI574
aa(lp1314
I719
aI540
aa(lp1315
I714
aI521
aa(lp1316
I714
aI509
aa(lp1317
I714
aI494
aa(lp1318
I715
aI462
aa(lp1319
I726
aI446
aa(lp1320
I747
aI437
aa(lp1321
I763
aI434
aa(lp1322
I764
aI433
aa(lp1323
I792
aI429
aa(lp1324
I829
aI428
aa(lp1325
I871
aI426
aa(lp1326
I923
aI425
aa(lp1327
I945
aI424
aa(lp1328
I957
aI424
aa(lp1329
I963
aI424
aa(lp1330
I966
aI424
aa(lp1331
I966
aI423
aa(lp1332
I967
aI423
aa(lp1333
I966
aI423
aa(lp1334
I966
aI424
aa(lp1335
I966
aI425
aaa.