(lp0
S''
p1
a(lp2
(lp3
I175
aI383
aa(lp4
I164
aI385
aa(lp5
I118
aI388
aa(lp6
I81
aI395
aa(lp7
I25
aI400
aa(lp8
I2
aI403
aa(lp9
I0
aI404
aa(lp10
I0
aI404
aa(lp11
I0
aI404
aa(lp12
I0
aI402
aa(lp13
I0
aI400
aa(lp14
I0
aI399
aa(lp15
I0
aI396
aa(lp16
I5
aI383
aa(lp17
I31
aI357
aa(lp18
I53
aI344
aa(lp19
I75
aI332
aa(lp20
I132
aI318
aa(lp21
I167
aI310
aa(lp22
I214
aI310
aa(lp23
I241
aI318
aa(lp24
I258
aI330
aa(lp25
I283
aI345
aa(lp26
I313
aI392
aa(lp27
I328
aI437
aa(lp28
I335
aI496
aa(lp29
I335
aI559
aa(lp30
I335
aI607
aa(lp31
I309
aI663
aa(lp32
I260
aI683
aa(lp33
I233
aI691
aa(lp34
I225
aI691
aa(lp35
I217
aI688
aa(lp36
I204
aI671
aa(lp37
I179
aI632
aa(lp38
I166
aI587
aa(lp39
I164
aI512
aa(lp40
I164
aI469
aa(lp41
I180
aI413
aa(lp42
I194
aI382
aa(lp43
I201
aI380
aa(lp44
I206
aI379
aa(lp45
I211
aI379
aa(lp46
I213
aI379
aa(lp47
I214
aI380
aa(lp48
I215
aI382
aa(lp49
I215
aI382
aa(lp50
I215
aI383
aa(lp51
I215
aI383
aa(lp52
I215
aI383
aa(lp53
I215
aI384
aa(lp54
I215
aI384
aa(lp55
I216
aI384
aaa.