(lp0
(lp1
I482
aI334
aI1
aa(lp2
I482
aI333
aI1
aa(lp3
I482
aI331
aI1
aa(lp4
I482
aI330
aI1
aa(lp5
I482
aI329
aI1
aa(lp6
I483
aI327
aI1
aa(lp7
I483
aI324
aI1
aa(lp8
I483
aI322
aI1
aa(lp9
I483
aI320
aI1
aa(lp10
I484
aI320
aI1
aa(lp11
I484
aI319
aI3
aa(lp12
I483
aI314
aI1
aa(lp13
I481
aI313
aI1
aa(lp14
I480
aI313
aI1
aa(lp15
I477
aI313
aI1
aa(lp16
I475
aI313
aI1
aa(lp17
I472
aI313
aI1
aa(lp18
I469
aI312
aI1
aa(lp19
I467
aI312
aI1
aa(lp20
I464
aI312
aI1
aa(lp21
I461
aI312
aI1
aa(lp22
I457
aI311
aI3
aa(lp23
I451
aI311
aI1
aa(lp24
I445
aI311
aI1
aa(lp25
I440
aI312
aI1
aa(lp26
I437
aI313
aI1
aa(lp27
I433
aI313
aI1
aa(lp28
I429
aI314
aI1
aa(lp29
I424
aI316
aI1
aa(lp30
I416
aI317
aI1
aa(lp31
I412
aI320
aI1
aa(lp32
I409
aI323
aI1
aa(lp33
I406
aI328
aI1
aa(lp34
I403
aI333
aI1
aa(lp35
I400
aI336
aI1
aa(lp36
I398
aI338
aI1
aa(lp37
I396
aI341
aI1
aa(lp38
I395
aI345
aI2
aa(lp39
I394
aI345
aI1
aa(lp40
I393
aI345
aI1
aa(lp41
I388
aI348
aI1
aa(lp42
I377
aI358
aI1
aa(lp43
I365
aI368
aI1
aa(lp44
I350
aI374
aI1
aa(lp45
I322
aI380
aI1
aa(lp46
I302
aI385
aI1
aa(lp47
I287
aI386
aI1
aa(lp48
I268
aI389
aI1
aa(lp49
I252
aI390
aI1
aa(lp50
I242
aI392
aI1
aa(lp51
I235
aI394
aI1
aa(lp52
I228
aI395
aI1
aa(lp53
I216
aI395
aI1
aa(lp54
I204
aI397
aI1
aa(lp55
I195
aI397
aI1
aa(lp56
I192
aI397
aI1
aa(lp57
I190
aI397
aI1
aa(lp58
I189
aI397
aI3
aa(lp59
I189
aI396
aI1
aa(lp60
I205
aI387
aI1
aa(lp61
I222
aI379
aI1
aa(lp62
I242
aI370
aI1
aa(lp63
I285
aI363
aI1
aa(lp64
I312
aI363
aI1
aa(lp65
I330
aI367
aI1
aa(lp66
I352
aI370
aI1
aa(lp67
I365
aI373
aI1
aa(lp68
I374
aI376
aI1
aa(lp69
I379
aI379
aI1
aa(lp70
I385
aI381
aI1
aa(lp71
I391
aI383
aI1
aa(lp72
I398
aI385
aI1
aa(lp73
I402
aI386
aI1
aa(lp74
I405
aI389
aI1
aa(lp75
I407
aI391
aI1
aa(lp76
I408
aI394
aI1
aa(lp77
I410
aI397
aI1
aa(lp78
I410
aI406
aI1
aa(lp79
I410
aI414
aI1
aa(lp80
I410
aI419
aI1
aa(lp81
I410
aI424
aI1
aa(lp82
I408
aI428
aI1
aa(lp83
I403
aI434
aI1
aa(lp84
I395
aI439
aI1
aa(lp85
I386
aI448
aI1
aa(lp86
I377
aI455
aI1
aa(lp87
I368
aI458
aI1
aa(lp88
I356
aI458
aI1
aa(lp89
I330
aI454
aI1
aa(lp90
I305
aI434
aI1
aa(lp91
I242
aI410
aI1
aa(lp92
I186
aI366
aI1
aa(lp93
I139
aI287
aI1
aa(lp94
I74
aI224
aI1
aa(lp95
I33
aI124
aI1
aa(lp96
I0
aI68
aI1
aa(lp97
I0
aI0
aI70
aa(lp98
I970
aI357
aI1
aa(lp99
I970
aI356
aI1
aa(lp100
I969
aI356
aI1
aa(lp101
I968
aI356
aI1
aa(lp102
I961
aI352
aI1
aa(lp103
I927
aI331
aI1
aa(lp104
I892
aI276
aI1
aa(lp105
I826
aI227
aI1
aa(lp106
I790
aI147
aI1
aa(lp107
I760
aI91
aI1
aa(lp108
I719
aI27
aI1
aa(lp109
I673
aI0
aI1
aa(lp110
I646
aI0
aI1
aa(lp111
I621
aI0
aI1
aa(lp112
I598
aI0
aI1
aa(lp113
I568
aI0
aI1
aa(lp114
I550
aI0
aI1
aa(lp115
I545
aI0
aI1
aa(lp116
I543
aI0
aI1
aa(lp117
I542
aI0
aI1
aa(lp118
I538
aI0
aI1
aa(lp119
I533
aI2
aI1
aa(lp120
I503
aI10
aI1
aa(lp121
I458
aI27
aI1
aa(lp122
I382
aI39
aI1
aa(lp123
I320
aI43
aI1
aa(lp124
I257
aI45
aI1
aa(lp125
I223
aI45
aI1
aa(lp126
I175
aI33
aI1
aa(lp127
I154
aI27
aI1
aa(lp128
I140
aI21
aI1
aa(lp129
I129
aI18
aI1
aa(lp130
I116
aI17
aI1
aa(lp131
I107
aI15
aI1
aa(lp132
I105
aI12
aI2
aa(lp133
I104
aI12
aI1
aa(lp134
I102
aI12
aI1
aa(lp135
I84
aI0
aI1
aa(lp136
I5
aI0
aI1
aa(lp137
I0
aI3
aI1
aa(lp138
I1
aI8
aI1
aa(lp139
I5
aI21
aI1
aa(lp140
I10
aI53
aI1
aa(lp141
I11
aI77
aI1
aa(lp142
I13
aI95
aI1
aa(lp143
I14
aI112
aI1
aa(lp144
I14
aI125
aI1
aa(lp145
I14
aI134
aI1
aa(lp146
I14
aI137
aI1
aa(lp147
I14
aI138
aI2
aa(lp148
I14
aI141
aI1
aa(lp149
I14
aI142
aI2
aa(lp150
I16
aI143
aI1
aa(lp151
I17
aI144
aI1
aa(lp152
I18
aI145
aI1
aa(lp153
I19
aI146
aI1
aa(lp154
I20
aI148
aI1
aa(lp155
I21
aI149
aI1
aa(lp156
I21
aI150
aI1
aa(lp157
I22
aI151
aI1
aa(lp158
I22
aI153
aI1
aa(lp159
I22
aI154
aI1
aa(lp160
I23
aI154
aI1
aa(lp161
I23
aI155
aI2
aa(lp162
I23
aI156
aI1
aa(lp163
I23
aI159
aI3
aa(lp164
I38
aI162
aI1
aa(lp165
I49
aI164
aI1
aa(lp166
I66
aI165
aI1
aa(lp167
I99
aI167
aI1
aa(lp168
I124
aI169
aI1
aa(lp169
I165
aI170
aI1
aa(lp170
I201
aI172
aI1
aa(lp171
I256
aI177
aI1
aa(lp172
I285
aI182
aI1
aa(lp173
I329
aI188
aI1
aa(lp174
I353
aI198
aI1
aa(lp175
I375
aI206
aI1
aa(lp176
I400
aI213
aI1
aa(lp177
I416
aI214
aI1
aa(lp178
I421
aI216
aI1
aa(lp179
I421
aI215
aI1
aa(lp180
I420
aI215
aI1
aa(lp181
I420
aI214
aI1
aa(lp182
I424
aI209
aI1
aa(lp183
I429
aI205
aI1
aa(lp184
I437
aI205
aI1
aa(lp185
I447
aI206
aI1
aa(lp186
I456
aI210
aI1
aa(lp187
I461
aI213
aI1
aa(lp188
I462
aI216
aI1
aa(lp189
I462
aI218
aI1
aa(lp190
I462
aI219
aI1
aa(lp191
I462
aI220
aI1
aa(lp192
I462
aI222
aI1
aa(lp193
I462
aI223
aI1
aa(lp194
I461
aI225
aI1
aa(lp195
I458
aI226
aI1
aa(lp196
I454
aI227
aI1
aa(lp197
I451
aI228
aI1
aa(lp198
I448
aI229
aI1
aa(lp199
I446
aI229
aI1
aa(lp200
I445
aI229
aI1
aa(lp201
I444
aI229
aI2
aa(lp202
I443
aI229
aI3
aa(lp203
I436
aI227
aI1
aa(lp204
I430
aI225
aI1
aa(lp205
I411
aI216
aI1
aa(lp206
I387
aI194
aI1
aa(lp207
I371
aI180
aI1
aa(lp208
I347
aI169
aI1
aa(lp209
I307
aI162
aI1
aa(lp210
I286
aI155
aI1
aa(lp211
I256
aI150
aI1
aa(lp212
I228
aI141
aI1
aa(lp213
I216
aI131
aI1
aa(lp214
I207
aI123
aI1
aa(lp215
I198
aI119
aI1
aa(lp216
I190
aI117
aI1
aa(lp217
I178
aI115
aI1
aa(lp218
I169
aI113
aI1
aa(lp219
I164
aI111
aI1
aa(lp220
I162
aI111
aI1
aa(lp221
I161
aI111
aI1
aa(lp222
I160
aI111
aI4
aa(lp223
I160
aI110
aI4
aa(lp224
I160
aI122
aI1
aa(lp225
I159
aI127
aI1
aa(lp226
I158
aI130
aI1
aa(lp227
I157
aI132
aI2
aa(lp228
I156
aI133
aI1
aa(lp229
I155
aI134
aI1
aa(lp230
I155
aI136
aI1
aa(lp231
I153
aI139
aI1
aa(lp232
I152
aI145
aI1
aa(lp233
I150
aI160
aI1
aa(lp234
I147
aI174
aI1
aa(lp235
I144
aI184
aI1
aa(lp236
I142
aI190
aI1
aa(lp237
I142
aI199
aI1
aa(lp238
I141
aI215
aI1
aa(lp239
I140
aI230
aI1
aa(lp240
I140
aI237
aI1
aa(lp241
I140
aI246
aI1
aa(lp242
I141
aI266
aI1
aa(lp243
I144
aI286
aI1
aa(lp244
I148
aI297
aI1
aa(lp245
I152
aI308
aI1
aa(lp246
I154
aI322
aI1
aa(lp247
I158
aI333
aI1
aa(lp248
I159
aI349
aI1
aa(lp249
I160
aI355
aI1
aa(lp250
I161
aI358
aI1
aa(lp251
I161
aI359
aI1
aa(lp252
I161
aI360
aI2
aa(lp253
I160
aI359
aI1
aa(lp254
I157
aI347
aI1
aa(lp255
I149
aI302
aI1
aa(lp256
I114
aI241
aI1
aa(lp257
I47
aI114
aI1
aa(lp258
I5
aI2
aI1
aa(lp259
I15
aI5
aI1
aa(lp260
I29
aI15
aI1
aa(lp261
I40
aI30
aI1
aa(lp262
I55
aI44
aI1
aa(lp263
I81
aI54
aI1
aa(lp264
I110
aI67
aI1
aa(lp265
I132
aI90
aI1
aa(lp266
I170
aI117
aI1
aa(lp267
I198
aI133
aI1
aa(lp268
I215
aI150
aI1
aa(lp269
I240
aI177
aI1
aa(lp270
I278
aI203
aI1
aa(lp271
I301
aI220
aI1
aa(lp272
I321
aI237
aI1
aa(lp273
I344
aI261
aI1
aa(lp274
I366
aI285
aI1
aa(lp275
I377
aI300
aI1
aa(lp276
I383
aI306
aI1
aa(lp277
I386
aI309
aI1
aa(lp278
I386
aI310
aI1
aa(lp279
I386
aI312
aI1
aa(lp280
I386
aI315
aI1
aa(lp281
I387
aI315
aI1
aa(lp282
I390
aI316
aI1
aa(lp283
I398
aI316
aI1
aa(lp284
I405
aI318
aI1
aa(lp285
I410
aI319
aI1
aa(lp286
I416
aI320
aI1
aa(lp287
I422
aI321
aI2
aa(lp288
I431
aI322
aI1
aa(lp289
I438
aI323
aI1
aa(lp290
I442
aI325
aI1
aa(lp291
I444
aI326
aI1
aa(lp292
I445
aI328
aI1
aa(lp293
I446
aI328
aI1
aa(lp294
I447
aI330
aI1
aa(lp295
I448
aI331
aI1
aa(lp296
I450
aI332
aI1
aa(lp297
I453
aI334
aI1
aa(lp298
I457
aI335
aI1
aa(lp299
I461
aI335
aI1
aa(lp300
I464
aI336
aI1
aa(lp301
I465
aI336
aI1
aa(lp302
I466
aI336
aI1
aa(lp303
I467
aI337
aI2
aa(lp304
I468
aI336
aI5
aa(lp305
I472
aI332
aI1
aa(lp306
I479
aI326
aI1
aa(lp307
I490
aI318
aI1
aa(lp308
I511
aI298
aI1
aa(lp309
I568
aI255
aI1
aa(lp310
I648
aI214
aI1
aa(lp311
I733
aI140
aI1
aa(lp312
I848
aI115
aI1
aa(lp313
I927
aI95
aI1
aa(lp314
I996
aI93
aI1
aa(lp315
I1026
aI93
aI1
aa(lp316
I1068
aI93
aI1
aa(lp317
I1096
aI93
aI1
aa(lp318
I1111
aI96
aI1
aa(lp319
I1132
aI98
aI1
aa(lp320
I1151
aI103
aI1
aa(lp321
I1158
aI103
aI1
aa(lp322
I1155
aI104
aI1
aa(lp323
I1155
aI105
aI1
aa(lp324
I1172
aI85
aI1
aa(lp325
I1210
aI54
aI1
aa(lp326
I1281
aI0
aI1
aa(lp327
I1316
aI0
aI1
aa(lp328
I1359
aI0
aI1
aa(lp329
I1365
aI0
aI13
aa(lp330
I1363
aI1
aI3
aa(lp331
I1360
aI3
aI1
aa(lp332
I1357
aI8
aI1
aa(lp333
I1352
aI20
aI1
aa(lp334
I1343
aI38
aI1
aa(lp335
I1333
aI50
aI1
aa(lp336
I1316
aI63
aI1
aa(lp337
I1302
aI83
aI1
aa(lp338
I1295
aI119
aI1
aa(lp339
I1289
aI136
aI1
aa(lp340
I1284
aI154
aI1
aa(lp341
I1277
aI176
aI1
aa(lp342
I1271
aI199
aI1
aa(lp343
I1265
aI209
aI1
aa(lp344
I1260
aI215
aI1
aa(lp345
I1258
aI216
aI2
aa(lp346
I1257
aI217
aI1
aa(lp347
I1256
aI217
aI2
aa(lp348
I1246
aI220
aI1
aa(lp349
I1244
aI220
aI2
aa(lp350
I1242
aI220
aI1
aa(lp351
I1241
aI220
aI1
aa(lp352
I1240
aI220
aI3
aa(lp353
I1239
aI220
aI1
aa(lp354
I1238
aI216
aI1
aa(lp355
I1237
aI213
aI1
aa(lp356
I1237
aI208
aI1
aa(lp357
I1237
aI202
aI1
aa(lp358
I1237
aI198
aI1
aa(lp359
I1237
aI195
aI2
aa(lp360
I1237
aI193
aI1
aa(lp361
I1238
aI188
aI1
aa(lp362
I1239
aI186
aI1
aa(lp363
I1239
aI185
aI1
aa(lp364
I1239
aI184
aI1
aa(lp365
I1240
aI184
aI2
aa(lp366
I1241
aI184
aI3
aa(lp367
I1238
aI185
aI1
aa(lp368
I1231
aI189
aI1
aa(lp369
I1220
aI192
aI1
aa(lp370
I1210
aI197
aI1
aa(lp371
I1196
aI199
aI1
aa(lp372
I1175
aI202
aI1
aa(lp373
I1162
aI203
aI1
aa(lp374
I1156
aI203
aI1
aa(lp375
I1153
aI203
aI1
aa(lp376
I1152
aI203
aI1
aa(lp377
I1151
aI203
aI1
aa(lp378
I1150
aI203
aI3
aa(lp379
I1150
aI204
aI1
aa(lp380
I1149
aI204
aI1
aa(lp381
I1144
aI205
aI1
aa(lp382
I1143
aI206
aI1
aa(lp383
I1142
aI206
aI1
aa(lp384
I1141
aI206
aI1
aa(lp385
I1140
aI207
aI2
aa(lp386
I1138
aI207
aI4
aa(lp387
I1125
aI214
aI1
aa(lp388
I1114
aI218
aI1
aa(lp389
I1099
aI225
aI1
aa(lp390
I1061
aI229
aI1
aa(lp391
I1025
aI234
aI1
aa(lp392
I968
aI237
aI1
aa(lp393
I929
aI237
aI1
aa(lp394
I874
aI239
aI1
aa(lp395
I848
aI242
aI1
aa(lp396
I823
aI242
aI1
aa(lp397
I808
aI242
aI1
aa(lp398
I801
aI242
aI1
aa(lp399
I799
aI242
aI1
aa(lp400
I797
aI242
aI1
aa(lp401
I796
aI242
aI1
aa(lp402
I795
aI242
aI1
aa(lp403
I793
aI242
aI2
aa(lp404
I792
aI242
aI3
aa(lp405
I790
aI243
aI1
aa(lp406
I786
aI244
aI1
aa(lp407
I782
aI244
aI1
aa(lp408
I779
aI245
aI1
aa(lp409
I773
aI245
aI1
aa(lp410
I760
aI244
aI1
aa(lp411
I747
aI241
aI1
aa(lp412
I737
aI239
aI1
aa(lp413
I721
aI237
aI1
aa(lp414
I706
aI236
aI1
aa(lp415
I696
aI233
aI1
aa(lp416
I690
aI231
aI1
aa(lp417
I684
aI228
aI1
aa(lp418
I680
aI226
aI1
aa(lp419
I677
aI226
aI1
aa(lp420
I676
aI224
aI1
aa(lp421
I675
aI224
aI4
aa(lp422
I675
aI223
aI3
aa(lp423
I675
aI225
aI1
aa(lp424
I676
aI226
aI1
aa(lp425
I677
aI229
aI1
aa(lp426
I679
aI234
aI1
aa(lp427
I684
aI246
aI1
aa(lp428
I691
aI272
aI1
aa(lp429
I701
aI292
aI1
aa(lp430
I707
aI325
aI1
aa(lp431
I720
aI360
aI1
aa(lp432
I740
aI384
aI1
aa(lp433
I764
aI421
aI1
aa(lp434
I781
aI447
aI1
aa(lp435
I790
aI465
aI1
aa(lp436
I802
aI483
aI1
aa(lp437
I815
aI512
aI1
aa(lp438
I830
aI529
aI1
aa(lp439
I849
aI541
aI1
aa(lp440
I863
aI550
aI1
aa(lp441
I869
aI558
aI1
aa(lp442
I872
aI563
aI1
aa(lp443
I872
aI565
aI3
aa(lp444
I873
aI568
aI1
aa(lp445
I873
aI570
aI1
aa(lp446
I874
aI572
aI1
aa(lp447
I874
aI574
aI1
aa(lp448
I874
aI575
aI1
aa(lp449
I874
aI577
aI1
aa(lp450
I874
aI579
aI1
aa(lp451
I874
aI581
aI1
aa(lp452
I874
aI583
aI1
aa(lp453
I874
aI585
aI1
aa(lp454
I874
aI589
aI1
aa(lp455
I873
aI596
aI1
aa(lp456
I871
aI607
aI1
aa(lp457
I869
aI613
aI1
aa(lp458
I868
aI617
aI1
aa(lp459
I867
aI620
aI1
aa(lp460
I865
aI622
aI1
aa(lp461
I864
aI623
aI2
aa(lp462
I863
aI623
aI2
aa(lp463
I863
aI624
aI5
aa(lp464
I859
aI620
aI1
aa(lp465
I851
aI615
aI1
aa(lp466
I822
aI601
aI1
aa(lp467
I793
aI577
aI1
aa(lp468
I733
aI546
aI1
aa(lp469
I697
aI521
aI1
aa(lp470
I651
aI482
aI1
aa(lp471
I598
aI436
aI1
aa(lp472
I564
aI414
aI1
aa(lp473
I521
aI384
aI1
aa(lp474
I488
aI347
aI1
aa(lp475
I475
aI327
aI1
aa(lp476
I467
aI320
aI1
aa(lp477
I463
aI315
aI1
aa(lp478
I459
aI311
aI1
aa(lp479
I460
aI311
aI1
aa(lp480
I464
aI310
aI1
aa(lp481
I468
aI309
aI1
aa(lp482
I479
aI305
aI1
aa(lp483
I512
aI300
aI1
aa(lp484
I564
aI294
aI1
aa(lp485
I608
aI290
aI1
aa(lp486
I674
aI287
aI1
aa(lp487
I725
aI287
aI1
aa(lp488
I776
aI286
aI1
aa(lp489
I802
aI286
aI1
aa(lp490
I846
aI286
aI1
aa(lp491
I871
aI286
aI1
aa(lp492
I907
aI283
aI1
aa(lp493
I942
aI279
aI1
aa(lp494
I954
aI271
aI1
aa(lp495
I964
aI261
aI1
aa(lp496
I968
aI243
aI1
aa(lp497
I963
aI243
aI2
aa(lp498
I963
aI242
aI1
aa(lp499
I964
aI219
aI1
aa(lp500
I984
aI174
aI1
aa(lp501
I1016
aI112
aI1
aa(lp502
I1073
aI52
aI1
aa(lp503
I1116
aI0
aI1
aa(lp504
I1148
aI0
aI1
aa(lp505
I1195
aI0
aI1
aa(lp506
I1247
aI0
aI1
aa(lp507
I1269
aI0
aI1
aa(lp508
I1299
aI0
aI1
aa(lp509
I1347
aI0
aI1
aa(lp510
I1349
aI1
aI1
aa(lp511
I1347
aI1
aI1
aa(lp512
I1343
aI1
aI1
aa(lp513
I1340
aI1
aI1
aa(lp514
I1337
aI1
aI1
aa(lp515
I1333
aI2
aI1
aa(lp516
I1329
aI5
aI1
aa(lp517
I1325
aI10
aI1
aa(lp518
I1317
aI23
aI1
aa(lp519
I1300
aI37
aI1
aa(lp520
I1279
aI46
aI1
aa(lp521
I1268
aI51
aI1
aa(lp522
I1263
aI56
aI1
aa(lp523
I1260
aI58
aI1
aa(lp524
I1259
aI59
aI1
aa(lp525
I1255
aI62
aI1
aa(lp526
I1249
aI70
aI1
aa(lp527
I1238
aI83
aI1
aa(lp528
I1225
aI96
aI1
aa(lp529
I1217
aI105
aI1
aa(lp530
I1210
aI121
aI1
aa(lp531
I1202
aI146
aI1
aa(lp532
I1191
aI160
aI1
aa(lp533
I1178
aI168
aI1
aa(lp534
I1167
aI173
aI1
aa(lp535
I1161
aI178
aI1
aa(lp536
I1158
aI180
aI1
aa(lp537
I1157
aI180
aI1
aa(lp538
I1157
aI181
aI3
aa(lp539
I1153
aI185
aI1
aa(lp540
I1152
aI186
aI2
aa(lp541
I1151
aI186
aI2
aa(lp542
I1149
aI186
aI1
aa(lp543
I1145
aI188
aI1
aa(lp544
I1144
aI188
aI3
aa(lp545
I1144
aI187
aI3
aa(lp546
I1142
aI188
aI1
aa(lp547
I1139
aI189
aI1
aa(lp548
I1137
aI189
aI1
aa(lp549
I1136
aI190
aI1
aa(lp550
I1134
aI191
aI1
aa(lp551
I1132
aI191
aI1
aa(lp552
I1129
aI191
aI1
aa(lp553
I1127
aI192
aI1
aa(lp554
I1122
aI192
aI1
aa(lp555
I1119
aI193
aI1
aa(lp556
I1116
aI194
aI1
aa(lp557
I1115
aI194
aI2
aa(lp558
I1114
aI195
aI4
aa(lp559
I1114
aI194
aI4
aa(lp560
I1115
aI193
aI1
aa(lp561
I1116
aI193
aI2
aa(lp562
I1123
aI189
aI1
aa(lp563
I1128
aI185
aI1
aa(lp564
I1132
aI178
aI1
aa(lp565
I1136
aI172
aI1
aa(lp566
I1139
aI169
aI1
aa(lp567
I1140
aI167
aI2
aa(lp568
I1141
aI166
aI2
aa(lp569
I1142
aI165
aI1
aa(lp570
I1143
aI165
aI1
aa(lp571
I1144
aI164
aI2
aa(lp572
I1145
aI162
aI3
aa(lp573
I1145
aI163
aI2
aa(lp574
I1106
aI161
aI1
aa(lp575
I1058
aI157
aI1
aa(lp576
I921
aI150
aI1
aa(lp577
I772
aI143
aI1
aa(lp578
I642
aI143
aI1
aa(lp579
I561
aI143
aI1
aa(lp580
I485
aI144
aI1
aa(lp581
I458
aI145
aI1
aa(lp582
I449
aI146
aI1
aa(lp583
I447
aI146
aI1
aa(lp584
I444
aI147
aI1
aa(lp585
I443
aI147
aI1
aa(lp586
I442
aI153
aI2
aa(lp587
I443
aI153
aI2
aa(lp588
I440
aI155
aI1
aa(lp589
I433
aI157
aI1
aa(lp590
I425
aI160
aI1
aa(lp591
I416
aI162
aI1
aa(lp592
I408
aI165
aI1
aa(lp593
I392
aI171
aI1
aa(lp594
I367
aI176
aI1
aa(lp595
I348
aI182
aI1
aa(lp596
I318
aI183
aI1
aa(lp597
I297
aI185
aI1
aa(lp598
I282
aI187
aI1
aa(lp599
I262
aI187
aI1
aa(lp600
I246
aI187
aI1
aa(lp601
I238
aI187
aI1
aa(lp602
I233
aI187
aI1
aa(lp603
I229
aI188
aI1
aa(lp604
I225
aI189
aI1
aa(lp605
I220
aI189
aI1
aa(lp606
I214
aI189
aI1
aa(lp607
I206
aI189
aI1
aa(lp608
I200
aI189
aI1
aa(lp609
I196
aI187
aI1
aa(lp610
I194
aI186
aI1
aa(lp611
I192
aI184
aI1
aa(lp612
I191
aI184
aI1
aa(lp613
I190
aI183
aI1
aa(lp614
I188
aI182
aI1
aa(lp615
I186
aI180
aI1
aa(lp616
I184
aI179
aI1
aa(lp617
I182
aI178
aI1
aa(lp618
I181
aI177
aI1
aa(lp619
I180
aI177
aI1
aa(lp620
I179
aI177
aI1
aa(lp621
I178
aI178
aI1
aa(lp622
I178
aI179
aI1
aa(lp623
I178
aI180
aI1
aa(lp624
I176
aI181
aI1
aa(lp625
I175
aI187
aI1
aa(lp626
I172
aI192
aI1
aa(lp627
I171
aI196
aI1
aa(lp628
I169
aI200
aI1
aa(lp629
I168
aI207
aI1
aa(lp630
I166
aI218
aI1
aa(lp631
I165
aI230
aI1
aa(lp632
I165
aI235
aI1
aa(lp633
I165
aI239
aI1
aa(lp634
I165
aI243
aI1
aa(lp635
I165
aI245
aI1
aa(lp636
I165
aI250
aI1
aa(lp637
I167
aI257
aI1
aa(lp638
I170
aI268
aI1
aa(lp639
I173
aI275
aI1
aa(lp640
I177
aI279
aI1
aa(lp641
I180
aI281
aI1
aa(lp642
I185
aI282
aI1
aa(lp643
I187
aI283
aI1
aa(lp644
I187
aI282
aI1
aa(lp645
I241
aI250
aI1
aa(lp646
I307
aI228
aI1
aa(lp647
I389
aI214
aI1
aa(lp648
I477
aI199
aI1
aa(lp649
I562
aI196
aI1
aa(lp650
I625
aI200
aI1
aa(lp651
I695
aI201
aI1
aa(lp652
I722
aI211
aI1
aa(lp653
I733
aI212
aI1
aa(lp654
I737
aI213
aI1
aa(lp655
I740
aI215
aI1
aa(lp656
I740
aI216
aI1
aa(lp657
I743
aI217
aI1
aa(lp658
I753
aI220
aI1
aa(lp659
I780
aI225
aI1
aa(lp660
I802
aI231
aI1
aa(lp661
I830
aI236
aI1
aa(lp662
I863
aI240
aI1
aa(lp663
I880
aI240
aI1
aa(lp664
I901
aI242
aI1
aa(lp665
I923
aI242
aI1
aa(lp666
I936
aI242
aI1
aa(lp667
I942
aI244
aI1
aa(lp668
I946
aI244
aI1
aa(lp669
I949
aI247
aI1
aa(lp670
I951
aI247
aI1
aa(lp671
I953
aI248
aI1
aa(lp672
I954
aI249
aI1
aa(lp673
I955
aI250
aI1
aa(lp674
I957
aI250
aI1
aa(lp675
I958
aI250
aI1
aa(lp676
I964
aI255
aI1
aa(lp677
I965
aI255
aI1
aa(lp678
I966
aI257
aI3
aa(lp679
I966
aI258
aI3
aa(lp680
I955
aI260
aI1
aa(lp681
I943
aI261
aI1
aa(lp682
I913
aI266
aI1
aa(lp683
I872
aI266
aI1
aa(lp684
I849
aI268
aI1
aa(lp685
I813
aI268
aI1
aa(lp686
I786
aI272
aI1
aa(lp687
I761
aI273
aI1
aa(lp688
I729
aI282
aI1
aa(lp689
I714
aI291
aI1
aa(lp690
I708
aI296
aI1
aa(lp691
I704
aI298
aI1
aa(lp692
I701
aI300
aI1
aa(lp693
I699
aI302
aI1
aa(lp694
I698
aI302
aI1
aa(lp695
I697
aI302
aI1
aa(lp696
I700
aI300
aI1
aa(lp697
I711
aI290
aI1
aa(lp698
I741
aI276
aI1
aa(lp699
I769
aI270
aI1
aa(lp700
I780
aI269
aI1
aa(lp701
I792
aI267
aI1
aa(lp702
I812
aI267
aI1
aa(lp703
I827
aI267
aI1
aa(lp704
I836
aI267
aI1
aa(lp705
I841
aI267
aI1
aa(lp706
I845
aI266
aI1
aa(lp707
I848
aI266
aI1
aa(lp708
I850
aI266
aI3
aa(lp709
I849
aI266
aI1
aa(lp710
I847
aI269
aI1
aa(lp711
I840
aI272
aI1
aa(lp712
I817
aI283
aI1
aa(lp713
I774
aI296
aI1
aa(lp714
I710
aI304
aI1
aa(lp715
I656
aI312
aI1
aa(lp716
I598
aI314
aI1
aa(lp717
I568
aI316
aI1
aa(lp718
I525
aI316
aI1
aa(lp719
I495
aI316
aI1
aa(lp720
I480
aI316
aI1
aa(lp721
I464
aI316
aI1
aa(lp722
I447
aI316
aI1
aa(lp723
I432
aI319
aI1
aa(lp724
I417
aI322
aI1
aa(lp725
I414
aI322
aI1
aa(lp726
I412
aI323
aI2
aa(lp727
I410
aI322
aI1
aa(lp728
I404
aI321
aI1
aa(lp729
I387
aI319
aI1
aa(lp730
I363
aI314
aI1
aa(lp731
I347
aI311
aI1
aa(lp732
I325
aI307
aI1
aa(lp733
I304
aI306
aI1
aa(lp734
I293
aI305
aI1
aa(lp735
I289
aI305
aI1
aa(lp736
I286
aI305
aI1
aa(lp737
I282
aI305
aI1
aa(lp738
I277
aI304
aI1
aa(lp739
I271
aI304
aI1
aa(lp740
I265
aI303
aI1
aa(lp741
I261
aI303
aI1
aa(lp742
I259
aI303
aI1
aa(lp743
I257
aI303
aI1
aa(lp744
I256
aI303
aI1
aa(lp745
I255
aI303
aI1
aa(lp746
I253
aI303
aI1
aa(lp747
I252
aI303
aI1
aa(lp748
I251
aI303
aI1
aa(lp749
I248
aI304
aI1
aa(lp750
I244
aI304
aI1
aa(lp751
I239
aI304
aI1
aa(lp752
I236
aI304
aI1
aa(lp753
I233
aI304
aI1
aa(lp754
I232
aI304
aI1
aa(lp755
I231
aI304
aI1
aa(lp756
I230
aI304
aI2
aa(lp757
I228
aI304
aI1
aa(lp758
I227
aI304
aI1
aa(lp759
I225
aI304
aI1
aa(lp760
I224
aI304
aI1
aa(lp761
I222
aI304
aI2
aa(lp762
I221
aI304
aI1
aa(lp763
I221
aI303
aI3
aa(lp764
I225
aI324
aI3
aa(lp765
I226
aI324
aI2
aa(lp766
I225
aI329
aI1
aa(lp767
I225
aI332
aI1
aa(lp768
I225
aI335
aI1
aa(lp769
I225
aI339
aI1
aa(lp770
I226
aI341
aI3
aa(lp771
I226
aI342
aI8
aa(lp772
I226
aI343
aI1
aa(lp773
I226
aI344
aI2
aa(lp774
I227
aI345
aI3
aa(lp775
I227
aI346
aI1
aa(lp776
I227
aI347
aI4
aa(lp777
I227
aI348
aI3
aa(lp778
I226
aI347
aI1
aa(lp779
I226
aI345
aI1
aa(lp780
I225
aI338
aI1
aa(lp781
I224
aI325
aI1
aa(lp782
I224
aI311
aI1
aa(lp783
I222
aI301
aI1
aa(lp784
I221
aI298
aI2
aa(lp785
I221
aI297
aI2
aa(lp786
I221
aI299
aI4
aa(lp787
I220
aI300
aI1
aa(lp788
I219
aI300
aI1
aa(lp789
I219
aI301
aI1
aa(lp790
I219
aI304
aI1
aa(lp791
I219
aI307
aI1
aa(lp792
I219
aI313
aI1
aa(lp793
I219
aI319
aI1
aa(lp794
I219
aI326
aI1
aa(lp795
I219
aI330
aI1
aa(lp796
I220
aI333
aI1
aa(lp797
I220
aI335
aI1
aa(lp798
I220
aI337
aI1
aa(lp799
I220
aI340
aI1
aa(lp800
I220
aI342
aI1
aa(lp801
I220
aI346
aI1
aa(lp802
I220
aI350
aI1
aa(lp803
I220
aI352
aI1
aa(lp804
I222
aI358
aI1
aa(lp805
I222
aI361
aI2
aa(lp806
I222
aI362
aI1
aa(lp807
I222
aI363
aI3
aa(lp808
I222
aI364
aI2
aa(lp809
I222
aI365
aI1
aa(lp810
I222
aI366
aI1
aa(lp811
I222
aI367
aI1
aa(lp812
I222
aI368
aI1
aa(lp813
I222
aI369
aI2
aa(lp814
I222
aI370
aI2
aa(lp815
I222
aI371
aI4
aa(lp816
I222
aI372
aI1
aa(lp817
I220
aI373
aI1
aa(lp818
I220
aI374
aI1
aa(lp819
I220
aI376
aI1
aa(lp820
I219
aI379
aI1
aa(lp821
I219
aI381
aI6
aa(lp822
I219
aI383
aI1
aa(lp823
I219
aI385
aI1
aa(lp824
I219
aI387
aI1
aa(lp825
I219
aI389
aI1
aa(lp826
I219
aI390
aI1
aa(lp827
I219
aI392
aI1
aa(lp828
I219
aI393
aI2
aa(lp829
I219
aI394
aI1
aa(lp830
I219
aI396
aI1
aa(lp831
I219
aI397
aI1
aa(lp832
I219
aI399
aI1
aa(lp833
I219
aI400
aI1
aa(lp834
I219
aI401
aI3
aa(lp835
I219
aI403
aI1
aa(lp836
I219
aI404
aI1
aa(lp837
I219
aI405
aI3
aa(lp838
I219
aI407
aI1
aa(lp839
I219
aI409
aI1
aa(lp840
I218
aI411
aI1
aa(lp841
I218
aI414
aI1
aa(lp842
I218
aI418
aI1
aa(lp843
I218
aI421
aI1
aa(lp844
I219
aI423
aI1
aa(lp845
I219
aI425
aI1
aa(lp846
I219
aI426
aI1
aa(lp847
I219
aI427
aI1
aa(lp848
I219
aI428
aI1
aa(lp849
I219
aI429
aI1
aa(lp850
I219
aI430
aI1
aa(lp851
I219
aI432
aI1
aa(lp852
I219
aI434
aI1
aa(lp853
I219
aI436
aI1
aa(lp854
I219
aI439
aI1
aa(lp855
I219
aI440
aI1
aa(lp856
I220
aI440
aI2
aa(lp857
I220
aI441
aI2
aa(lp858
I220
aI442
aI3
aa(lp859
I219
aI442
aI2
aa(lp860
I219
aI443
aI1
aa(lp861
I219
aI444
aI1
aa(lp862
I219
aI448
aI1
aa(lp863
I219
aI453
aI1
aa(lp864
I219
aI459
aI1
aa(lp865
I219
aI462
aI1
aa(lp866
I219
aI464
aI1
aa(lp867
I219
aI465
aI1
aa(lp868
I219
aI466
aI3
aa(lp869
I219
aI468
aI1
aa(lp870
I219
aI470
aI1
aa(lp871
I219
aI472
aI1
aa(lp872
I219
aI475
aI1
aa(lp873
I219
aI478
aI1
aa(lp874
I219
aI479
aI1
aa(lp875
I219
aI480
aI1
aa(lp876
I219
aI481
aI1
aa(lp877
I219
aI483
aI4
aa(lp878
I218
aI490
aI1
aa(lp879
I218
aI492
aI1
aa(lp880
I218
aI495
aI1
aa(lp881
I218
aI496
aI1
aa(lp882
I218
aI498
aI1
aa(lp883
I218
aI499
aI1
aa(lp884
I218
aI501
aI1
aa(lp885
I218
aI502
aI1
aa(lp886
I218
aI504
aI1
aa(lp887
I218
aI505
aI2
aa(lp888
I218
aI507
aI2
aa(lp889
I219
aI508
aI1
aa(lp890
I219
aI509
aI4
aa(lp891
I219
aI510
aI2
aa(lp892
I220
aI511
aI1
aa(lp893
I220
aI515
aI1
aa(lp894
I220
aI525
aI1
aa(lp895
I220
aI530
aI1
aa(lp896
I221
aI531
aI1
aa(lp897
I221
aI533
aI2
aa(lp898
I221
aI534
aI2
aa(lp899
I221
aI535
aI2
aa(lp900
I221
aI536
aI1
aa(lp901
I221
aI537
aI2
aa(lp902
I221
aI538
aI1
aa(lp903
I221
aI539
aI1
aa(lp904
I221
aI540
aI6
aa(lp905
I224
aI528
aI1
aa(lp906
I231
aI520
aI1
aa(lp907
I241
aI512
aI1
aa(lp908
I249
aI503
aI1
aa(lp909
I255
aI486
aI1
aa(lp910
I261
aI469
aI1
aa(lp911
I270
aI456
aI1
aa(lp912
I280
aI441
aI1
aa(lp913
I288
aI417
aI1
aa(lp914
I305
aI396
aI1
aa(lp915
I313
aI388
aI1
aa(lp916
I318
aI382
aI1
aa(lp917
I322
aI379
aI1
aa(lp918
I324
aI376
aI1
aa(lp919
I328
aI368
aI1
aa(lp920
I328
aI366
aI1
aa(lp921
I328
aI365
aI1
aa(lp922
I334
aI354
aI1
aa(lp923
I338
aI344
aI1
aa(lp924
I345
aI327
aI1
aa(lp925
I352
aI319
aI1
aa(lp926
I356
aI313
aI1
aa(lp927
I358
aI309
aI1
aa(lp928
I360
aI306
aI1
aa(lp929
I360
aI299
aI1
aa(lp930
I360
aI287
aI1
aa(lp931
I360
aI272
aI1
aa(lp932
I360
aI266
aI1
aa(lp933
I360
aI265
aI1
aa(lp934
I360
aI263
aI1
aa(lp935
I360
aI261
aI1
aa(lp936
I360
aI259
aI1
aa(lp937
I360
aI258
aI1
aa(lp938
I361
aI255
aI1
aa(lp939
I361
aI253
aI1
aa(lp940
I362
aI250
aI1
aa(lp941
I362
aI247
aI1
aa(lp942
I362
aI242
aI1
aa(lp943
I362
aI236
aI1
aa(lp944
I362
aI232
aI1
aa(lp945
I362
aI231
aI3
aa(lp946
I362
aI230
aI1
aa(lp947
I368
aI227
aI1
aa(lp948
I370
aI226
aI1
aa(lp949
I372
aI225
aI1
aa(lp950
I373
aI223
aI1
aa(lp951
I376
aI221
aI1
aa(lp952
I377
aI220
aI1
aa(lp953
I379
aI217
aI1
aa(lp954
I382
aI215
aI1
aa(lp955
I387
aI210
aI1
aa(lp956
I393
aI205
aI1
aa(lp957
I397
aI202
aI1
aa(lp958
I400
aI200
aI1
aa(lp959
I403
aI199
aI1
aa(lp960
I406
aI197
aI1
aa(lp961
I408
aI196
aI1
aa(lp962
I409
aI196
aI1
aa(lp963
I411
aI196
aI1
aa(lp964
I413
aI196
aI1
aa(lp965
I414
aI196
aI1
aa(lp966
I416
aI196
aI1
aa(lp967
I418
aI196
aI1
aa(lp968
I419
aI196
aI1
aa(lp969
I421
aI196
aI1
aa(lp970
I423
aI196
aI1
aa(lp971
I424
aI196
aI1
aa(lp972
I426
aI196
aI1
aa(lp973
I428
aI196
aI1
aa(lp974
I431
aI196
aI1
aa(lp975
I435
aI196
aI1
aa(lp976
I440
aI197
aI1
aa(lp977
I455
aI199
aI1
aa(lp978
I468
aI205
aI1
aa(lp979
I478
aI208
aI1
aa(lp980
I484
aI211
aI1
aa(lp981
I487
aI211
aI1
aa(lp982
I488
aI211
aI2
aa(lp983
I487
aI212
aI2
aa(lp984
I489
aI212
aI1
aa(lp985
I518
aI211
aI1
aa(lp986
I562
aI209
aI1
aa(lp987
I619
aI210
aI1
aa(lp988
I660
aI224
aI1
aa(lp989
I711
aI243
aI1
aa(lp990
I737
aI256
aI1
aa(lp991
I751
aI266
aI1
aa(lp992
I763
aI271
aI1
aa(lp993
I775
aI273
aI1
aa(lp994
I787
aI277
aI1
aa(lp995
I795
aI279
aI1
aa(lp996
I797
aI279
aI1
aa(lp997
I797
aI280
aI1
aa(lp998
I784
aI278
aI1
aa(lp999
I781
aI278
aI1
aa(lp1000
I778
aI277
aI1
aa(lp1001
I775
aI275
aI1
aa(lp1002
I771
aI273
aI1
aa(lp1003
I766
aI273
aI1
aa(lp1004
I760
aI272
aI1
aa(lp1005
I758
aI271
aI1
aa(lp1006
I756
aI271
aI2
aa(lp1007
I756
aI270
aI1
aa(lp1008
I756
aI266
aI2
aa(lp1009
I756
aI267
aI1
aa(lp1010
I754
aI269
aI1
aa(lp1011
I749
aI271
aI1
aa(lp1012
I733
aI276
aI1
aa(lp1013
I721
aI281
aI1
aa(lp1014
I709
aI283
aI1
aa(lp1015
I679
aI283
aI2
aa(lp1016
I655
aI283
aI1
aa(lp1017
I622
aI281
aI1
aa(lp1018
I587
aI276
aI1
aa(lp1019
I553
aI274
aI1
aa(lp1020
I520
aI272
aI1
aa(lp1021
I503
aI271
aI1
aa(lp1022
I487
aI271
aI1
aa(lp1023
I469
aI271
aI1
aa(lp1024
I456
aI271
aI1
aa(lp1025
I451
aI272
aI1
aa(lp1026
I449
aI272
aI1
aa(lp1027
I448
aI272
aI1
aa(lp1028
I446
aI272
aI1
aa(lp1029
I443
aI272
aI1
aa(lp1030
I438
aI275
aI1
aa(lp1031
I429
aI280
aI1
aa(lp1032
I412
aI286
aI1
aa(lp1033
I374
aI293
aI1
aa(lp1034
I351
aI299
aI1
aa(lp1035
I316
aI308
aI1
aa(lp1036
I293
aI311
aI1
aa(lp1037
I283
aI315
aI1
aa(lp1038
I278
aI317
aI1
aa(lp1039
I274
aI318
aI1
aa(lp1040
I270
aI318
aI1
aa(lp1041
I262
aI319
aI1
aa(lp1042
I256
aI319
aI1
aa(lp1043
I252
aI320
aI1
aa(lp1044
I250
aI320
aI1
aa(lp1045
I249
aI320
aI1
aa(lp1046
I248
aI320
aI1
aa(lp1047
I247
aI320
aI1
aa(lp1048
I245
aI321
aI1
aa(lp1049
I244
aI321
aI1
aa(lp1050
I242
aI322
aI1
aa(lp1051
I240
aI323
aI1
aa(lp1052
I237
aI323
aI1
aa(lp1053
I234
aI324
aI1
aa(lp1054
I231
aI325
aI1
aa(lp1055
I228
aI325
aI1
aa(lp1056
I226
aI327
aI1
aa(lp1057
I224
aI327
aI1
aa(lp1058
I223
aI328
aI1
aa(lp1059
I223
aI329
aI1
aa(lp1060
I222
aI332
aI1
aa(lp1061
I221
aI337
aI1
aa(lp1062
I221
aI344
aI1
aa(lp1063
I221
aI349
aI1
aa(lp1064
I221
aI352
aI1
aa(lp1065
I220
aI354
aI7
aa(lp1066
I220
aI355
aI5
aa(lp1067
I220
aI356
aI2
aa(lp1068
I220
aI353
aI4
aa(lp1069
I219
aI353
aI2
aa(lp1070
I219
aI354
aI2
aa(lp1071
I217
aI358
aI1
aa(lp1072
I216
aI359
aI1
aa(lp1073
I216
aI361
aI1
aa(lp1074
I216
aI362
aI1
aa(lp1075
I216
aI364
aI1
aa(lp1076
I216
aI365
aI1
aa(lp1077
I216
aI366
aI1
aa(lp1078
I216
aI368
aI1
aa(lp1079
I216
aI369
aI1
aa(lp1080
I216
aI370
aI1
aa(lp1081
I216
aI372
aI2
aa(lp1082
I216
aI373
aI2
aa(lp1083
I216
aI374
aI2
aa(lp1084
I216
aI375
aI2
aa(lp1085
I216
aI376
aI1
aa(lp1086
I216
aI377
aI1
aa(lp1087
I216
aI378
aI1
aa(lp1088
I216
aI379
aI1
aa(lp1089
I216
aI380
aI1
aa(lp1090
I216
aI381
aI4
aa(lp1091
I217
aI381
aI3
aa(lp1092
I218
aI381
aI4
aa(lp1093
I219
aI380
aI4
aa(lp1094
I220
aI380
aI4
aa(lp1095
I221
aI380
aI6
aa(lp1096
I221
aI379
aI1
aa(lp1097
I222
aI380
aI3
aa(lp1098
I223
aI380
aI3
aa(lp1099
I223
aI382
aI1
aa(lp1100
I224
aI382
aI1
aa(lp1101
I224
aI383
aI1
aa(lp1102
I224
aI385
aI1
aa(lp1103
I224
aI386
aI1
aa(lp1104
I224
aI387
aI1
aa(lp1105
I224
aI389
aI1
aa(lp1106
I225
aI392
aI1
aa(lp1107
I225
aI395
aI1
aa(lp1108
I225
aI397
aI1
aa(lp1109
I225
aI398
aI1
aa(lp1110
I225
aI399
aI1
aa(lp1111
I225
aI400
aI2
aa(lp1112
I225
aI401
aI3
aa(lp1113
I225
aI402
aI2
aa(lp1114
I225
aI403
aI1
aa(lp1115
I226
aI403
aI4
aa(lp1116
I226
aI404
aI3
aa(lp1117
I227
aI404
aI1
aa(lp1118
I227
aI405
aI1
aa(lp1119
I227
aI406
aI4
aa(lp1120
I227
aI407
aI1
aa(lp1121
I228
aI407
aI1
aa(lp1122
I228
aI408
aI1
aa(lp1123
I228
aI409
aI7
aa(lp1124
I228
aI410
aI3
aa(lp1125
I227
aI411
aI1
aa(lp1126
I227
aI414
aI1
aa(lp1127
I227
aI415
aI1
aa(lp1128
I227
aI417
aI1
aa(lp1129
I227
aI418
aI1
aa(lp1130
I227
aI420
aI1
aa(lp1131
I227
aI421
aI1
aa(lp1132
I227
aI423
aI1
aa(lp1133
I227
aI425
aI1
aa(lp1134
I227
aI426
aI1
aa(lp1135
I227
aI428
aI1
aa(lp1136
I227
aI429
aI1
aa(lp1137
I227
aI430
aI2
aa(lp1138
I227
aI432
aI2
aa(lp1139
I227
aI433
aI2
aa(lp1140
I227
aI434
aI1
aa(lp1141
I227
aI435
aI1
aa(lp1142
I227
aI436
aI2
aa(lp1143
I227
aI437
aI1
aa(lp1144
I227
aI438
aI1
aa(lp1145
I227
aI440
aI2
aa(lp1146
I227
aI442
aI3
aa(lp1147
I227
aI444
aI1
aa(lp1148
I227
aI445
aI3
aa(lp1149
I227
aI446
aI1
aa(lp1150
I227
aI447
aI1
aa(lp1151
I227
aI448
aI1
aa(lp1152
I227
aI449
aI1
aa(lp1153
I227
aI450
aI1
aa(lp1154
I226
aI451
aI4
aa(lp1155
I226
aI455
aI1
aa(lp1156
I225
aI457
aI1
aa(lp1157
I224
aI457
aI2
aa(lp1158
I224
aI459
aI1
aa(lp1159
I223
aI460
aI1
aa(lp1160
I222
aI461
aI1
aa(lp1161
I222
aI463
aI1
aa(lp1162
I220
aI464
aI1
aa(lp1163
I220
aI465
aI1
aa(lp1164
I218
aI468
aI1
aa(lp1165
I218
aI469
aI1
aa(lp1166
I217
aI469
aI1
aa(lp1167
I217
aI470
aI2
aa(lp1168
I217
aI471
aI1
aa(lp1169
I217
aI472
aI1
aa(lp1170
I216
aI472
aI1
aa(lp1171
I216
aI473
aI2
aa(lp1172
I216
aI474
aI2
aa(lp1173
I216
aI475
aI1
aa(lp1174
I216
aI476
aI1
aa(lp1175
I216
aI477
aI1
aa(lp1176
I216
aI478
aI2
aa(lp1177
I216
aI479
aI2
aa(lp1178
I217
aI479
aI1
aa(lp1179
I218
aI479
aI1
aa(lp1180
I218
aI480
aI1
aa(lp1181
I218
aI482
aI1
aa(lp1182
I219
aI482
aI2
aa(lp1183
I217
aI484
aI4
aa(lp1184
I217
aI485
aI1
aa(lp1185
I217
aI486
aI3
aa(lp1186
I217
aI487
aI3
aa(lp1187
I217
aI488
aI1
aa(lp1188
I217
aI489
aI1
aa(lp1189
I217
aI491
aI1
aa(lp1190
I217
aI492
aI1
aa(lp1191
I217
aI493
aI1
aa(lp1192
I217
aI495
aI1
aa(lp1193
I217
aI497
aI2
aa(lp1194
I217
aI498
aI2
aa(lp1195
I217
aI499
aI2
aa(lp1196
I217
aI500
aI2
aa(lp1197
I217
aI502
aI1
aa(lp1198
I217
aI503
aI2
aa(lp1199
I217
aI504
aI3
aa(lp1200
I217
aI505
aI1
aa(lp1201
I218
aI506
aI4
aa(lp1202
I219
aI506
aI6
aa(lp1203
I219
aI505
aI2
aa(lp1204
I219
aI504
aI2
aa(lp1205
I219
aI503
aI1
aa(lp1206
I219
aI502
aI1
aa(lp1207
I220
aI495
aI1
aa(lp1208
I223
aI481
aI1
aa(lp1209
I225
aI477
aI1
aa(lp1210
I225
aI476
aI1
aa(lp1211
I225
aI474
aI2
aa(lp1212
I225
aI473
aI2
aa(lp1213
I225
aI472
aI1
aa(lp1214
I226
aI472
aI1
aa(lp1215
I226
aI471
aI1
aa(lp1216
I226
aI467
aI2
aa(lp1217
I226
aI466
aI1
aa(lp1218
I225
aI464
aI1
aa(lp1219
I225
aI461
aI2
aa(lp1220
I224
aI456
aI1
aa(lp1221
I223
aI454
aI1
aa(lp1222
I223
aI452
aI1
aa(lp1223
I222
aI449
aI1
aa(lp1224
I221
aI448
aI2
aa(lp1225
I221
aI447
aI2
aa(lp1226
I220
aI447
aI6
aa(lp1227
I220
aI446
aI1
aa(lp1228
I220
aI448
aI1
aa(lp1229
I220
aI449
aI1
aa(lp1230
I222
aI451
aI1
aa(lp1231
I223
aI453
aI1
aa(lp1232
I227
aI471
aI1
aa(lp1233
I227
aI472
aI3
aa(lp1234
I228
aI474
aI1
aa(lp1235
I228
aI475
aI1
aa(lp1236
I228
aI477
aI1
aa(lp1237
I228
aI478
aI1
aa(lp1238
I228
aI479
aI1
aa(lp1239
I228
aI480
aI2
aa(lp1240
I228
aI481
aI1
aa(lp1241
I228
aI482
aI1
aa(lp1242
I228
aI483
aI1
aa(lp1243
I228
aI484
aI1
aa(lp1244
I228
aI486
aI1
aa(lp1245
I229
aI488
aI1
aa(lp1246
I229
aI490
aI1
aa(lp1247
I229
aI492
aI1
aa(lp1248
I229
aI494
aI1
aa(lp1249
I230
aI496
aI1
aa(lp1250
I230
aI497
aI2
aa(lp1251
I230
aI498
aI1
aa(lp1252
I230
aI499
aI2
aa(lp1253
I231
aI500
aI2
aa(lp1254
I231
aI501
aI3
aa(lp1255
I231
aI502
aI3
aa(lp1256
I232
aI503
aI4
aa(lp1257
I233
aI503
aI4
aa(lp1258
I233
aI505
aI1
aa(lp1259
I233
aI507
aI1
aa(lp1260
I234
aI508
aI1
aa(lp1261
I235
aI511
aI1
aa(lp1262
I235
aI514
aI1
aa(lp1263
I236
aI516
aI1
aa(lp1264
I236
aI518
aI1
aa(lp1265
I236
aI519
aI1
aa(lp1266
I236
aI520
aI1
aa(lp1267
I237
aI521
aI1
aa(lp1268
I237
aI522
aI5
aa(lp1269
I236
aI522
aI1
aa(lp1270
I234
aI521
aI1
aa(lp1271
I233
aI520
aI8
aa(lp1272
I233
aI522
aI2
aa(lp1273
I232
aI522
aI4
aa(lp1274
I231
aI522
aI1
aa(lp1275
I231
aI521
aI1
aa(lp1276
I228
aI519
aI1
aa(lp1277
I227
aI519
aI1
aa(lp1278
I227
aI520
aI5
aa(lp1279
I227
aI521
aI6
aa(lp1280
I227
aI522
aI2
aa(lp1281
I227
aI526
aI1
aa(lp1282
I227
aI527
aI1
aa(lp1283
I227
aI528
aI3
aa(lp1284
I228
aI528
aI1
aa(lp1285
I228
aI529
aI2
aa(lp1286
I228
aI530
aI2
aa(lp1287
I229
aI531
aI1
aa(lp1288
I229
aI532
aI1
aa(lp1289
I230
aI533
aI2
aa(lp1290
I230
aI534
aI1
aa(lp1291
I230
aI535
aI3
aa(lp1292
I231
aI536
aI2
aa(lp1293
I232
aI543
aI3
aa(lp1294
I231
aI544
aI2
aa(lp1295
I230
aI544
aI1
aa(lp1296
I230
aI545
aI2
aa(lp1297
I229
aI545
aI1
aa(lp1298
I229
aI546
aI1
aa(lp1299
I228
aI546
aI2
aa(lp1300
I227
aI547
aI3
aa(lp1301
I227
aI548
aI2
aa(lp1302
I226
aI548
aI5
aa(lp1303
I225
aI549
aI2
aa(lp1304
I225
aI548
aI3
aa(lp1305
I224
aI548
aI2
aa(lp1306
I224
aI550
aI1
aa(lp1307
I224
aI551
aI1
aa(lp1308
I224
aI552
aI1
aa(lp1309
I225
aI553
aI2
aa(lp1310
I225
aI554
aI2
aa(lp1311
I225
aI555
aI4
aa(lp1312
I225
aI556
aI7
aa(lp1313
I225
aI557
aI3
aa(lp1314
I224
aI555
aI2
aa(lp1315
I224
aI556
aI2
aa(lp1316
I223
aI558
aI3
aa(lp1317
I223
aI559
aI1
aa(lp1318
I223
aI560
aI1
aa(lp1319
I222
aI561
aI1
aa(lp1320
I222
aI563
aI1
aa(lp1321
I221
aI565
aI1
aa(lp1322
I221
aI566
aI1
aa(lp1323
I221
aI567
aI2
aa(lp1324
I221
aI569
aI1
aa(lp1325
I221
aI570
aI1
aa(lp1326
I220
aI573
aI1
aa(lp1327
I220
aI574
aI1
aa(lp1328
I220
aI576
aI3
aa(lp1329
I220
aI577
aI2
aa(lp1330
I220
aI578
aI2
aa(lp1331
I220
aI579
aI3
aa(lp1332
I220
aI580
aI2
aa(lp1333
I220
aI581
aI2
aa(lp1334
I220
aI582
aI2
aa(lp1335
I220
aI583
aI1
aa(lp1336
I221
aI584
aI2
aa(lp1337
I221
aI585
aI3
aa(lp1338
I222
aI586
aI1
aa(lp1339
I222
aI585
aI2
aa(lp1340
I223
aI585
aI1
aa(lp1341
I224
aI585
aI2
aa(lp1342
I225
aI585
aI6
aa(lp1343
I226
aI585
aI3
aa(lp1344
I228
aI585
aI1
aa(lp1345
I229
aI585
aI1
aa(lp1346
I231
aI586
aI1
aa(lp1347
I233
aI586
aI3
aa(lp1348
I234
aI586
aI2
aa(lp1349
I234
aI587
aI4
aa(lp1350
I234
aI588
aI1
aa(lp1351
I234
aI589
aI1
aa(lp1352
I234
aI590
aI2
aa(lp1353
I234
aI591
aI3
aa(lp1354
I233
aI591
aI2
aa(lp1355
I230
aI591
aI1
aa(lp1356
I227
aI591
aI1
aa(lp1357
I226
aI591
aI1
aa(lp1358
I224
aI591
aI2
aa(lp1359
I222
aI590
aI2
aa(lp1360
I221
aI590
aI1
aa(lp1361
I221
aI589
aI1
aa(lp1362
I220
aI589
aI4
aa(lp1363
I220
aI588
aI1
aa(lp1364
I221
aI588
aI3
aa(lp1365
I222
aI587
aI1
aa(lp1366
I226
aI584
aI7
aa(lp1367
I226
aI583
aI1
aa(lp1368
I225
aI584
aI1
aa(lp1369
I225
aI583
aI1
aa(lp1370
I225
aI582
aI1
aa(lp1371
I227
aI579
aI1
aa(lp1372
I231
aI571
aI1
aa(lp1373
I238
aI548
aI1
aa(lp1374
I248
aI533
aI1
aa(lp1375
I262
aI519
aI1
aa(lp1376
I276
aI483
aI1
aa(lp1377
I289
aI455
aI1
aa(lp1378
I297
aI435
aI1
aa(lp1379
I303
aI401
aI1
aa(lp1380
I310
aI371
aI1
aa(lp1381
I321
aI353
aI1
aa(lp1382
I345
aI316
aI1
aa(lp1383
I377
aI285
aI1
aa(lp1384
I396
aI266
aI1
aa(lp1385
I415
aI251
aI1
aa(lp1386
I438
aI234
aI1
aa(lp1387
I438
aI232
aI1
aa(lp1388
I445
aI223
aI1
aa(lp1389
I452
aI216
aI1
aa(lp1390
I464
aI209
aI1
aa(lp1391
I470
aI206
aI1
aa(lp1392
I472
aI205
aI1
aa(lp1393
I473
aI205
aI3
aa(lp1394
I474
aI205
aI2
aa(lp1395
I474
aI207
aI2
aa(lp1396
I474
aI208
aI1
aa(lp1397
I474
aI210
aI1
aa(lp1398
I474
aI211
aI1
aa(lp1399
I474
aI212
aI7
aa(lp1400
I473
aI212
aI1
aa(lp1401
I472
aI220
aI1
aa(lp1402
I472
aI224
aI1
aa(lp1403
I472
aI229
aI1
aa(lp1404
I472
aI236
aI1
aa(lp1405
I472
aI249
aI1
aa(lp1406
I473
aI273
aI1
aa(lp1407
I478
aI288
aI1
aa(lp1408
I482
aI300
aI1
aa(lp1409
I485
aI316
aI1
aa(lp1410
I489
aI340
aI1
aa(lp1411
I496
aI354
aI1
aa(lp1412
I501
aI367
aI1
aa(lp1413
I508
aI381
aI1
aa(lp1414
I516
aI407
aI1
aa(lp1415
I523
aI426
aI1
aa(lp1416
I529
aI439
aI1
aa(lp1417
I535
aI449
aI1
aa(lp1418
I539
aI460
aI1
aa(lp1419
I542
aI469
aI1
aa(lp1420
I544
aI477
aI1
aa(lp1421
I544
aI483
aI1
aa(lp1422
I545
aI484
aI1
aa(lp1423
I546
aI484
aI1
aa(lp1424
I548
aI478
aI1
aa(lp1425
I549
aI476
aI1
aa(lp1426
I551
aI474
aI1
aa(lp1427
I554
aI471
aI1
aa(lp1428
I558
aI464
aI1
aa(lp1429
I565
aI458
aI1
aa(lp1430
I570
aI453
aI1
aa(lp1431
I572
aI451
aI1
aa(lp1432
I574
aI449
aI1
aa(lp1433
I575
aI447
aI1
aa(lp1434
I577
aI445
aI1
aa(lp1435
I578
aI444
aI1
aa(lp1436
I579
aI442
aI1
aa(lp1437
I580
aI440
aI1
aa(lp1438
I581
aI438
aI1
aa(lp1439
I582
aI436
aI1
aa(lp1440
I583
aI436
aI1
aa(lp1441
I583
aI434
aI1
aa(lp1442
I585
aI432
aI1
aa(lp1443
I587
aI430
aI1
aa(lp1444
I588
aI428
aI1
aa(lp1445
I590
aI425
aI1
aa(lp1446
I593
aI424
aI1
aa(lp1447
I596
aI423
aI1
aa(lp1448
I599
aI422
aI1
aa(lp1449
I601
aI420
aI1
aa(lp1450
I603
aI419
aI1
aa(lp1451
I604
aI418
aI1
aa(lp1452
I605
aI418
aI1
aa(lp1453
I606
aI418
aI1
aa(lp1454
I606
aI417
aI1
aa(lp1455
I606
aI416
aI3
aa(lp1456
I606
aI414
aI1
aa(lp1457
I605
aI409
aI1
aa(lp1458
I599
aI397
aI1
aa(lp1459
I592
aI375
aI1
aa(lp1460
I573
aI341
aI1
aa(lp1461
I547
aI319
aI1
aa(lp1462
I526
aI288
aI1
aa(lp1463
I512
aI255
aI1
aa(lp1464
I501
aI238
aI1
aa(lp1465
I490
aI230
aI1
aa(lp1466
I483
aI228
aI1
aa(lp1467
I480
aI227
aI1
aa(lp1468
I479
aI226
aI1
aa(lp1469
I478
aI226
aI4
aa(lp1470
I477
aI220
aI1
aa(lp1471
I477
aI218
aI1
aa(lp1472
I477
aI217
aI1
aa(lp1473
I477
aI216
aI1
aa(lp1474
I478
aI214
aI1
aa(lp1475
I480
aI212
aI1
aa(lp1476
I481
aI211
aI1
aa(lp1477
I481
aI210
aI1
aa(lp1478
I481
aI209
aI1
aa(lp1479
I477
aI203
aI1
aa(lp1480
I475
aI201
aI1
aa(lp1481
I474
aI200
aI5
aa(lp1482
I474
aI201
aI1
aa(lp1483
I474
aI204
aI1
aa(lp1484
I475
aI209
aI1
aa(lp1485
I476
aI210
aI1
aa(lp1486
I478
aI213
aI1
aa(lp1487
I481
aI216
aI1
aa(lp1488
I487
aI224
aI1
aa(lp1489
I506
aI236
aI1
aa(lp1490
I526
aI246
aI1
aa(lp1491
I542
aI253
aI1
aa(lp1492
I568
aI260
aI1
aa(lp1493
I588
aI270
aI1
aa(lp1494
I602
aI285
aI1
aa(lp1495
I621
aI299
aI1
aa(lp1496
I645
aI307
aI1
aa(lp1497
I659
aI315
aI1
aa(lp1498
I671
aI323
aI1
aa(lp1499
I683
aI328
aI1
aa(lp1500
I694
aI341
aI1
aa(lp1501
I707
aI350
aI1
aa(lp1502
I713
aI359
aI1
aa(lp1503
I716
aI361
aI1
aa(lp1504
I717
aI366
aI1
aa(lp1505
I711
aI373
aI1
aa(lp1506
I710
aI374
aI1
aa(lp1507
I708
aI375
aI1
aa(lp1508
I706
aI375
aI1
aa(lp1509
I703
aI375
aI1
aa(lp1510
I699
aI376
aI1
aa(lp1511
I696
aI376
aI1
aa(lp1512
I695
aI376
aI1
aa(lp1513
I694
aI376
aI1
aa(lp1514
I693
aI376
aI1
aa(lp1515
I692
aI377
aI2
aa(lp1516
I691
aI377
aI4
aa(lp1517
I689
aI375
aI1
aa(lp1518
I675
aI350
aI1
aa(lp1519
I654
aI325
aI1
aa(lp1520
I629
aI294
aI1
aa(lp1521
I600
aI247
aI1
aa(lp1522
I580
aI216
aI1
aa(lp1523
I572
aI200
aI1
aa(lp1524
I567
aI185
aI1
aa(lp1525
I562
aI170
aI1
aa(lp1526
I560
aI152
aI1
aa(lp1527
I555
aI139
aI1
aa(lp1528
I552
aI135
aI1
aa(lp1529
I551
aI132
aI1
aa(lp1530
I549
aI131
aI1
aa(lp1531
I548
aI130
aI1
aa(lp1532
I547
aI130
aI1
aa(lp1533
I545
aI128
aI1
aa(lp1534
I543
aI128
aI1
aa(lp1535
I542
aI128
aI1
aa(lp1536
I540
aI128
aI1
aa(lp1537
I538
aI128
aI1
aa(lp1538
I535
aI128
aI1
aa(lp1539
I533
aI128
aI1
aa(lp1540
I530
aI129
aI1
aa(lp1541
I528
aI131
aI1
aa(lp1542
I524
aI135
aI1
aa(lp1543
I520
aI142
aI1
aa(lp1544
I515
aI155
aI1
aa(lp1545
I509
aI164
aI1
aa(lp1546
I503
aI168
aI1
aa(lp1547
I499
aI172
aI1
aa(lp1548
I497
aI172
aI1
aa(lp1549
I495
aI174
aI1
aa(lp1550
I494
aI174
aI1
aa(lp1551
I493
aI175
aI1
aa(lp1552
I492
aI175
aI1
aa(lp1553
I490
aI177
aI1
aa(lp1554
I489
aI179
aI1
aa(lp1555
I487
aI181
aI1
aa(lp1556
I486
aI183
aI1
aa(lp1557
I485
aI186
aI1
aa(lp1558
I484
aI188
aI1
aa(lp1559
I483
aI190
aI1
aa(lp1560
I483
aI191
aI1
aa(lp1561
I483
aI192
aI2
aa(lp1562
I482
aI192
aI2
aa(lp1563
I475
aI197
aI2
aa(lp1564
I475
aI202
aI1
aa(lp1565
I476
aI204
aI1
aa(lp1566
I479
aI206
aI1
aa(lp1567
I500
aI227
aI1
aa(lp1568
I513
aI240
aI1
aa(lp1569
I525
aI250
aI1
aa(lp1570
I541
aI262
aI1
aa(lp1571
I561
aI282
aI1
aa(lp1572
I572
aI296
aI1
aa(lp1573
I580
aI305
aI1
aa(lp1574
I585
aI310
aI1
aa(lp1575
I591
aI314
aI1
aa(lp1576
I593
aI316
aI1
aa(lp1577
I597
aI319
aI1
aa(lp1578
I602
aI323
aI1
aa(lp1579
I606
aI324
aI1
aa(lp1580
I608
aI324
aI1
aa(lp1581
I608
aI325
aI2
aa(lp1582
I607
aI325
aI1
aa(lp1583
I605
aI324
aI1
aa(lp1584
I592
aI315
aI1
aa(lp1585
I582
aI308
aI1
aa(lp1586
I575
aI302
aI1
aa(lp1587
I569
aI299
aI1
aa(lp1588
I565
aI297
aI1
aa(lp1589
I562
aI297
aI1
aa(lp1590
I561
aI297
aI1
aa(lp1591
I558
aI297
aI1
aa(lp1592
I556
aI297
aI1
aa(lp1593
I554
aI298
aI1
aa(lp1594
I552
aI298
aI1
aa(lp1595
I550
aI300
aI1
aa(lp1596
I548
aI301
aI1
aa(lp1597
I547
aI302
aI1
aa(lp1598
I545
aI304
aI1
aa(lp1599
I543
aI306
aI1
aa(lp1600
I542
aI308
aI1
aa(lp1601
I539
aI312
aI1
aa(lp1602
I538
aI317
aI1
aa(lp1603
I535
aI323
aI1
aa(lp1604
I534
aI324
aI2
aa(lp1605
I534
aI325
aI2
aa(lp1606
I534
aI326
aI2
aa(lp1607
I532
aI330
aI1
aa(lp1608
I530
aI332
aI1
aa(lp1609
I529
aI333
aI1
aa(lp1610
I528
aI335
aI1
aa(lp1611
I527
aI335
aI1
aa(lp1612
I527
aI337
aI1
aa(lp1613
I526
aI337
aI1
aa(lp1614
I525
aI337
aI2
aa(lp1615
I523
aI344
aI1
aa(lp1616
I523
aI353
aI1
aa(lp1617
I528
aI367
aI1
aa(lp1618
I538
aI375
aI1
aa(lp1619
I549
aI384
aI1
aa(lp1620
I556
aI390
aI1
aa(lp1621
I563
aI404
aI1
aa(lp1622
I570
aI418
aI1
aa(lp1623
I578
aI430
aI1
aa(lp1624
I588
aI439
aI1
aa(lp1625
I607
aI447
aI1
aa(lp1626
I623
aI460
aI1
aa(lp1627
I633
aI480
aI1
aa(lp1628
I643
aI497
aI1
aa(lp1629
I654
aI508
aI1
aa(lp1630
I664
aI516
aI1
aa(lp1631
I677
aI526
aI1
aa(lp1632
I683
aI534
aI1
aa(lp1633
I690
aI544
aI1
aa(lp1634
I693
aI552
aI1
aa(lp1635
I696
aI555
aI1
aa(lp1636
I698
aI559
aI1
aa(lp1637
I699
aI560
aI1
aa(lp1638
I699
aI561
aI1
aa(lp1639
I700
aI561
aI1
aa(lp1640
I700
aI560
aI2
aa(lp1641
I700
aI559
aI1
aa(lp1642
I702
aI557
aI1
aa(lp1643
I703
aI557
aI1
aa(lp1644
I704
aI556
aI1
aa(lp1645
I705
aI556
aI1
aa(lp1646
I707
aI556
aI1
aa(lp1647
I708
aI556
aI1
aa(lp1648
I706
aI555
aI1
aa(lp1649
I700
aI545
aI1
aa(lp1650
I676
aI508
aI1
aa(lp1651
I633
aI472
aI1
aa(lp1652
I608
aI419
aI1
aa(lp1653
I587
aI362
aI1
aa(lp1654
I564
aI328
aI1
aa(lp1655
I539
aI281
aI1
aa(lp1656
I509
aI250
aI1
aa(lp1657
I497
aI240
aI1
aa(lp1658
I493
aI238
aI2
aa(lp1659
I492
aI238
aI1
aa(lp1660
I482
aI237
aI1
aa(lp1661
I468
aI236
aI1
aa(lp1662
I449
aI235
aI1
aa(lp1663
I392
aI232
aI1
aa(lp1664
I358
aI227
aI1
aa(lp1665
I326
aI226
aI1
aa(lp1666
I291
aI222
aI1
aa(lp1667
I279
aI219
aI1
aa(lp1668
I275
aI218
aI1
aa(lp1669
I273
aI218
aI1
aa(lp1670
I273
aI217
aI3
aa(lp1671
I274
aI216
aI1
aa(lp1672
I274
aI217
aI2
aa(lp1673
I272
aI218
aI1
aa(lp1674
I270
aI218
aI1
aa(lp1675
I266
aI218
aI1
aa(lp1676
I262
aI218
aI1
aa(lp1677
I258
aI217
aI1
aa(lp1678
I253
aI215
aI1
aa(lp1679
I248
aI212
aI1
aa(lp1680
I243
aI209
aI1
aa(lp1681
I241
aI209
aI1
aa(lp1682
I240
aI209
aI2
aa(lp1683
I240
aI208
aI3
aa(lp1684
I239
aI207
aI2
aa(lp1685
I245
aI211
aI1
aa(lp1686
I254
aI214
aI1
aa(lp1687
I279
aI218
aI1
aa(lp1688
I300
aI227
aI1
aa(lp1689
I331
aI242
aI1
aa(lp1690
I367
aI255
aI1
aa(lp1691
I385
aI264
aI1
aa(lp1692
I413
aI268
aI1
aa(lp1693
I440
aI270
aI1
aa(lp1694
I453
aI271
aI1
aa(lp1695
I462
aI273
aI1
aa(lp1696
I468
aI273
aI1
aa(lp1697
I474
aI273
aI1
aa(lp1698
I479
aI273
aI1
aa(lp1699
I483
aI273
aI1
aa(lp1700
I485
aI272
aI1
aa(lp1701
I476
aI274
aI1
aa(lp1702
I472
aI276
aI1
aa(lp1703
I467
aI277
aI1
aa(lp1704
I460
aI277
aI1
aa(lp1705
I446
aI277
aI1
aa(lp1706
I435
aI275
aI1
aa(lp1707
I429
aI274
aI1
aa(lp1708
I424
aI273
aI1
aa(lp1709
I421
aI273
aI1
aa(lp1710
I419
aI273
aI1
aa(lp1711
I421
aI279
aI1
aa(lp1712
I425
aI282
aI1
aa(lp1713
I429
aI287
aI1
aa(lp1714
I436
aI291
aI1
aa(lp1715
I446
aI291
aI1
aa(lp1716
I465
aI292
aI1
aa(lp1717
I481
aI294
aI1
aa(lp1718
I499
aI294
aI1
aa(lp1719
I534
aI293
aI1
aa(lp1720
I556
aI292
aI1
aa(lp1721
I588
aI291
aI1
aa(lp1722
I606
aI289
aI1
aa(lp1723
I614
aI289
aI1
aa(lp1724
I616
aI289
aI1
aa(lp1725
I618
aI288
aI2
aa(lp1726
I618
aI287
aI1
aa(lp1727
I618
aI286
aI1
aa(lp1728
I619
aI286
aI1
aa(lp1729
I619
aI285
aI1
aa(lp1730
I619
aI284
aI1
aa(lp1731
I619
aI282
aI1
aa(lp1732
I619
aI280
aI1
aa(lp1733
I619
aI277
aI1
aa(lp1734
I619
aI275
aI1
aa(lp1735
I617
aI273
aI1
aa(lp1736
I616
aI272
aI1
aa(lp1737
I614
aI271
aI1
aa(lp1738
I611
aI270
aI1
aa(lp1739
I608
aI269
aI1
aa(lp1740
I603
aI268
aI1
aa(lp1741
I601
aI268
aI1
aa(lp1742
I597
aI268
aI1
aa(lp1743
I595
aI268
aI1
aa(lp1744
I594
aI268
aI1
aa(lp1745
I593
aI268
aI1
aa(lp1746
I593
aI269
aI3
aa(lp1747
I592
aI269
aI1
aa(lp1748
I589
aI268
aI1
aa(lp1749
I584
aI265
aI1
aa(lp1750
I570
aI262
aI1
aa(lp1751
I544
aI258
aI1
aa(lp1752
I525
aI251
aI1
aa(lp1753
I492
aI245
aI1
aa(lp1754
I463
aI240
aI1
aa(lp1755
I440
aI240
aI1
aa(lp1756
I406
aI239
aI1
aa(lp1757
I389
aI239
aI1
aa(lp1758
I382
aI242
aI1
aa(lp1759
I378
aI246
aI1
aa(lp1760
I374
aI246
aI1
aa(lp1761
I371
aI247
aI1
aa(lp1762
I366
aI249
aI1
aa(lp1763
I365
aI253
aI1
aa(lp1764
I363
aI257
aI1
aa(lp1765
I358
aI265
aI1
aa(lp1766
I349
aI278
aI1
aa(lp1767
I332
aI291
aI1
aa(lp1768
I314
aI298
aI1
aa(lp1769
I300
aI302
aI1
aa(lp1770
I289
aI306
aI1
aa(lp1771
I277
aI307
aI1
aa(lp1772
I258
aI307
aI1
aa(lp1773
I249
aI308
aI1
aa(lp1774
I245
aI308
aI1
aa(lp1775
I243
aI308
aI1
aa(lp1776
I242
aI308
aI1
aa(lp1777
I241
aI308
aI1
aa(lp1778
I240
aI308
aI1
aa(lp1779
I239
aI308
aI1
aa(lp1780
I238
aI308
aI1
aa(lp1781
I236
aI308
aI1
aa(lp1782
I234
aI308
aI1
aa(lp1783
I232
aI308
aI1
aa(lp1784
I229
aI308
aI1
aa(lp1785
I228
aI308
aI1
aa(lp1786
I227
aI308
aI1
aa(lp1787
I225
aI308
aI1
aa(lp1788
I224
aI308
aI2
aa(lp1789
I223
aI307
aI2
aa(lp1790
I222
aI307
aI7
aa(lp1791
I222
aI306
aI3
aa(lp1792
I221
aI308
aI1
aa(lp1793
I220
aI312
aI1
aa(lp1794
I220
aI316
aI1
aa(lp1795
I220
aI322
aI1
aa(lp1796
I220
aI326
aI1
aa(lp1797
I220
aI331
aI1
aa(lp1798
I221
aI334
aI1
aa(lp1799
I223
aI337
aI1
aa(lp1800
I224
aI339
aI1
aa(lp1801
I225
aI341
aI3
aa(lp1802
I225
aI342
aI2
aa(lp1803
I225
aI343
aI4
aa(lp1804
I224
aI343
aI1
aa(lp1805
I225
aI345
aI1
aa(lp1806
I225
aI347
aI1
aa(lp1807
I225
aI350
aI1
aa(lp1808
I225
aI351
aI2
aa(lp1809
I224
aI351
aI1
aa(lp1810
I224
aI353
aI1
aa(lp1811
I224
aI355
aI1
aa(lp1812
I224
aI359
aI1
aa(lp1813
I224
aI360
aI1
aa(lp1814
I223
aI362
aI1
aa(lp1815
I223
aI363
aI1
aa(lp1816
I223
aI364
aI1
aa(lp1817
I223
aI365
aI1
aa(lp1818
I223
aI366
aI1
aa(lp1819
I223
aI367
aI2
aa(lp1820
I223
aI368
aI1
aa(lp1821
I224
aI368
aI2
aa(lp1822
I225
aI368
aI3
aa(lp1823
I223
aI372
aI1
aa(lp1824
I223
aI373
aI1
aa(lp1825
I223
aI375
aI1
aa(lp1826
I223
aI377
aI1
aa(lp1827
I224
aI381
aI1
aa(lp1828
I225
aI386
aI1
aa(lp1829
I226
aI387
aI1
aa(lp1830
I226
aI389
aI1
aa(lp1831
I227
aI390
aI1
aa(lp1832
I228
aI390
aI1
aa(lp1833
I228
aI391
aI1
aa(lp1834
I229
aI392
aI2
aa(lp1835
I229
aI393
aI1
aa(lp1836
I229
aI394
aI2
aa(lp1837
I229
aI395
aI2
aa(lp1838
I227
aI399
aI1
aa(lp1839
I226
aI400
aI1
aa(lp1840
I224
aI402
aI3
aa(lp1841
I222
aI412
aI1
aa(lp1842
I220
aI422
aI1
aa(lp1843
I217
aI435
aI1
aa(lp1844
I217
aI443
aI1
aa(lp1845
I217
aI444
aI1
aa(lp1846
I217
aI445
aI2
aa(lp1847
I217
aI446
aI3
aa(lp1848
I217
aI447
aI1
aa(lp1849
I217
aI448
aI2
aa(lp1850
I217
aI449
aI1
aa(lp1851
I217
aI450
aI3
aa(lp1852
I217
aI451
aI1
aa(lp1853
I216
aI451
aI1
aa(lp1854
I216
aI450
aI1
aa(lp1855
I218
aI450
aI5
aa(lp1856
I228
aI438
aI1
aa(lp1857
I241
aI423
aI1
aa(lp1858
I257
aI405
aI1
aa(lp1859
I270
aI385
aI1
aa(lp1860
I281
aI346
aI1
aa(lp1861
I300
aI320
aI1
aa(lp1862
I322
aI303
aI1
aa(lp1863
I333
aI288
aI1
aa(lp1864
I342
aI269
aI1
aa(lp1865
I349
aI255
aI1
aa(lp1866
I357
aI245
aI1
aa(lp1867
I365
aI236
aI1
aa(lp1868
I373
aI232
aI1
aa(lp1869
I367
aI235
aI1
aa(lp1870
I366
aI235
aI2
aa(lp1871
I366
aI221
aI1
aa(lp1872
I369
aI213
aI1
aa(lp1873
I372
aI210
aI1
aa(lp1874
I376
aI209
aI1
aa(lp1875
I380
aI208
aI1
aa(lp1876
I383
aI207
aI1
aa(lp1877
I386
aI207
aI1
aa(lp1878
I389
aI207
aI1
aa(lp1879
I391
aI206
aI1
aa(lp1880
I393
aI206
aI1
aa(lp1881
I395
aI206
aI1
aa(lp1882
I399
aI206
aI1
aa(lp1883
I404
aI206
aI1
aa(lp1884
I409
aI206
aI1
aa(lp1885
I414
aI205
aI1
aa(lp1886
I417
aI205
aI1
aa(lp1887
I420
aI205
aI1
aa(lp1888
I422
aI205
aI1
aa(lp1889
I423
aI204
aI3
aa(lp1890
I425
aI204
aI1
aa(lp1891
I427
aI204
aI1
aa(lp1892
I431
aI203
aI1
aa(lp1893
I434
aI203
aI1
aa(lp1894
I436
aI203
aI1
aa(lp1895
I439
aI202
aI1
aa(lp1896
I440
aI201
aI3
aa(lp1897
I441
aI201
aI2
aa(lp1898
I442
aI200
aI1
aa(lp1899
I437
aI207
aI1
aa(lp1900
I432
aI212
aI1
aa(lp1901
I425
aI218
aI1
aa(lp1902
I412
aI222
aI1
aa(lp1903
I389
aI225
aI1
aa(lp1904
I374
aI228
aI1
aa(lp1905
I356
aI233
aI1
aa(lp1906
I331
aI236
aI1
aa(lp1907
I318
aI245
aI1
aa(lp1908
I312
aI253
aI1
aa(lp1909
I307
aI260
aI1
aa(lp1910
I304
aI265
aI1
aa(lp1911
I299
aI269
aI1
aa(lp1912
I297
aI271
aI1
aa(lp1913
I295
aI271
aI1
aa(lp1914
I293
aI272
aI1
aa(lp1915
I291
aI273
aI1
aa(lp1916
I288
aI273
aI1
aa(lp1917
I287
aI274
aI1
aa(lp1918
I286
aI274
aI1
aa(lp1919
I285
aI274
aI1
aa(lp1920
I284
aI274
aI1
aa(lp1921
I283
aI274
aI1
aa(lp1922
I282
aI275
aI5
aa(lp1923
I281
aI276
aI1
aa(lp1924
I281
aI275
aI1
aa(lp1925
I302
aI275
aI1
aa(lp1926
I312
aI274
aI1
aa(lp1927
I343
aI269
aI1
aa(lp1928
I383
aI257
aI1
aa(lp1929
I431
aI250
aI1
aa(lp1930
I469
aI244
aI1
aa(lp1931
I498
aI243
aI1
aa(lp1932
I542
aI243
aI1
aa(lp1933
I562
aI243
aI1
aa(lp1934
I584
aI252
aI1
aa(lp1935
I617
aI261
aI1
aa(lp1936
I632
aI268
aI1
aa(lp1937
I640
aI272
aI1
aa(lp1938
I648
aI274
aI1
aa(lp1939
I655
aI276
aI1
aa(lp1940
I664
aI278
aI1
aa(lp1941
I672
aI281
aI1
aa(lp1942
I681
aI284
aI1
aa(lp1943
I682
aI284
aI1
aa(lp1944
I682
aI285
aI1
aa(lp1945
I680
aI286
aI1
aa(lp1946
I659
aI291
aI1
aa(lp1947
I644
aI297
aI1
aa(lp1948
I601
aI297
aI1
aa(lp1949
I561
aI298
aI1
aa(lp1950
I494
aI298
aI1
aa(lp1951
I463
aI294
aI1
aa(lp1952
I416
aI285
aI1
aa(lp1953
I390
aI280
aI1
aa(lp1954
I372
aI275
aI1
aa(lp1955
I355
aI273
aI1
aa(lp1956
I342
aI271
aI1
aa(lp1957
I338
aI271
aI3
aa(lp1958
I337
aI272
aI2
aa(lp1959
I350
aI272
aI1
aa(lp1960
I376
aI271
aI1
aa(lp1961
I407
aI265
aI1
aa(lp1962
I466
aI255
aI1
aa(lp1963
I511
aI239
aI1
aa(lp1964
I567
aI224
aI1
aa(lp1965
I588
aI221
aI1
aa(lp1966
I603
aI221
aI1
aa(lp1967
I622
aI229
aI1
aa(lp1968
I639
aI241
aI1
aa(lp1969
I646
aI245
aI1
aa(lp1970
I648
aI248
aI1
aa(lp1971
I650
aI248
aI1
aa(lp1972
I653
aI248
aI1
aa(lp1973
I657
aI248
aI1
aa(lp1974
I662
aI248
aI1
aa(lp1975
I679
aI248
aI1
aa(lp1976
I695
aI250
aI1
aa(lp1977
I706
aI252
aI1
aa(lp1978
I717
aI253
aI1
aa(lp1979
I729
aI254
aI1
aa(lp1980
I736
aI255
aI1
aa(lp1981
I739
aI256
aI1
aa(lp1982
I741
aI258
aI1
aa(lp1983
I742
aI259
aI2
aa(lp1984
I743
aI259
aI5
aa(lp1985
I743
aI260
aI1
aa(lp1986
I742
aI260
aI1
aa(lp1987
I741
aI260
aI1
aa(lp1988
I737
aI261
aI1
aa(lp1989
I728
aI262
aI1
aa(lp1990
I716
aI263
aI1
aa(lp1991
I704
aI266
aI1
aa(lp1992
I680
aI266
aI1
aa(lp1993
I657
aI266
aI1
aa(lp1994
I634
aI266
aI1
aa(lp1995
I604
aI267
aI1
aa(lp1996
I590
aI267
aI1
aa(lp1997
I579
aI269
aI1
aa(lp1998
I563
aI269
aI1
aa(lp1999
I545
aI269
aI1
aa(lp2000
I537
aI269
aI1
aa(lp2001
I531
aI270
aI1
aa(lp2002
I527
aI270
aI1
aa(lp2003
I524
aI270
aI1
aa(lp2004
I523
aI270
aI1
aa(lp2005
I522
aI270
aI1
aa(lp2006
I521
aI267
aI1
aa(lp2007
I516
aI280
aI1
aa(lp2008
I512
aI287
aI1
aa(lp2009
I505
aI304
aI1
aa(lp2010
I499
aI329
aI1
aa(lp2011
I494
aI343
aI1
aa(lp2012
I492
aI351
aI1
aa(lp2013
I489
aI355
aI1
aa(lp2014
I487
aI357
aI1
aa(lp2015
I487
aI360
aI1
aa(lp2016
I485
aI362
aI1
aa(lp2017
I484
aI367
aI1
aa(lp2018
I483
aI373
aI1
aa(lp2019
I482
aI377
aI1
aa(lp2020
I481
aI379
aI3
aa(lp2021
I475
aI381
aI1
aa(lp2022
I472
aI382
aI1
aa(lp2023
I468
aI382
aI1
aa(lp2024
I461
aI382
aI1
aa(lp2025
I454
aI382
aI1
aa(lp2026
I450
aI381
aI1
aa(lp2027
I446
aI379
aI1
aa(lp2028
I442
aI376
aI1
aa(lp2029
I437
aI374
aI1
aa(lp2030
I429
aI372
aI1
aa(lp2031
I423
aI369
aI1
aa(lp2032
I419
aI368
aI1
aa(lp2033
I417
aI367
aI1
aa(lp2034
I415
aI367
aI5
aa(lp2035
I415
aI366
aI1
aa(lp2036
I424
aI363
aI1
aa(lp2037
I431
aI362
aI1
aa(lp2038
I443
aI361
aI1
aa(lp2039
I449
aI359
aI1
aa(lp2040
I456
aI358
aI1
aa(lp2041
I462
aI358
aI1
aa(lp2042
I474
aI357
aI1
aa(lp2043
I489
aI357
aI1
aa(lp2044
I496
aI357
aI1
aa(lp2045
I503
aI358
aI1
aa(lp2046
I511
aI359
aI1
aa(lp2047
I523
aI360
aI1
aa(lp2048
I533
aI362
aI1
aa(lp2049
I540
aI363
aI1
aa(lp2050
I549
aI367
aI1
aa(lp2051
I546
aI366
aI1
aa(lp2052
I540
aI366
aI1
aa(lp2053
I526
aI360
aI1
aa(lp2054
I502
aI347
aI1
aa(lp2055
I454
aI332
aI1
aa(lp2056
I409
aI318
aI1
aa(lp2057
I355
aI300
aI1
aa(lp2058
I308
aI267
aI1
aa(lp2059
I269
aI244
aI1
aa(lp2060
I256
aI235
aI1
aa(lp2061
I254
aI232
aI1
aa(lp2062
I253
aI232
aI1
aa(lp2063
I252
aI233
aI1
aa(lp2064
I243
aI226
aI1
aa(lp2065
I237
aI216
aI1
aa(lp2066
I229
aI207
aI1
aa(lp2067
I222
aI200
aI1
aa(lp2068
I217
aI197
aI1
aa(lp2069
I215
aI196
aI3
aa(lp2070
I215
aI195
aI3
aa(lp2071
I215
aI197
aI1
aa(lp2072
I213
aI198
aI1
aa(lp2073
I212
aI199
aI1
aa(lp2074
I211
aI200
aI1
aa(lp2075
I206
aI201
aI1
aa(lp2076
I202
aI204
aI1
aa(lp2077
I198
aI205
aI1
aa(lp2078
I193
aI207
aI1
aa(lp2079
I184
aI207
aI1
aa(lp2080
I176
aI207
aI1
aa(lp2081
I170
aI208
aI1
aa(lp2082
I168
aI209
aI1
aa(lp2083
I167
aI212
aI1
aa(lp2084
I164
aI217
aI1
aa(lp2085
I161
aI222
aI1
aa(lp2086
I161
aI223
aI1
aa(lp2087
I161
aI227
aI1
aa(lp2088
I158
aI230
aI1
aa(lp2089
I151
aI235
aI1
aa(lp2090
I136
aI238
aI1
aa(lp2091
I127
aI242
aI1
aa(lp2092
I121
aI246
aI1
aa(lp2093
I116
aI249
aI1
aa(lp2094
I113
aI251
aI1
aa(lp2095
I111
aI252
aI1
aa(lp2096
I109
aI254
aI1
aa(lp2097
I103
aI260
aI1
aa(lp2098
I95
aI266
aI1
aa(lp2099
I90
aI269
aI1
aa(lp2100
I86
aI273
aI1
aa(lp2101
I84
aI275
aI1
aa(lp2102
I82
aI276
aI1
aa(lp2103
I81
aI276
aI1
aa(lp2104
I80
aI277
aI2
aa(lp2105
I79
aI277
aI3
aa(lp2106
I73
aI280
aI1
aa(lp2107
I70
aI281
aI1
aa(lp2108
I66
aI284
aI1
aa(lp2109
I63
aI284
aI1
aa(lp2110
I62
aI284
aI3
aa(lp2111
I62
aI285
aI2
aa(lp2112
I62
aI283
aI1
aa(lp2113
I67
aI278
aI1
aa(lp2114
I76
aI274
aI1
aa(lp2115
I88
aI268
aI1
aa(lp2116
I99
aI262
aI1
aa(lp2117
I112
aI255
aI1
aa(lp2118
I136
aI245
aI1
aa(lp2119
I154
aI230
aI1
aa(lp2120
I166
aI213
aI1
aa(lp2121
I176
aI201
aI1
aa(lp2122
I189
aI193
aI1
aa(lp2123
I204
aI188
aI1
aa(lp2124
I213
aI180
aI1
aa(lp2125
I222
aI174
aI1
aa(lp2126
I228
aI164
aI1
aa(lp2127
I233
aI154
aI1
aa(lp2128
I238
aI146
aI1
aa(lp2129
I247
aI140
aI1
aa(lp2130
I254
aI139
aI1
aa(lp2131
I262
aI139
aI1
aa(lp2132
I261
aI139
aI2
aa(lp2133
I260
aI139
aI1
aa(lp2134
I244
aI127
aI1
aa(lp2135
I228
aI100
aI1
aa(lp2136
I208
aI75
aI1
aa(lp2137
I187
aI63
aI1
aa(lp2138
I163
aI44
aI1
aa(lp2139
I153
aI28
aI1
aa(lp2140
I147
aI25
aI1
aa(lp2141
I146
aI23
aI3
aa(lp2142
I146
aI22
aI2
aa(lp2143
I150
aI22
aI1
aa(lp2144
I156
aI23
aI1
aa(lp2145
I162
aI25
aI1
aa(lp2146
I166
aI30
aI1
aa(lp2147
I170
aI32
aI1
aa(lp2148
I171
aI33
aI1
aa(lp2149
I173
aI33
aI1
aa(lp2150
I174
aI35
aI1
aa(lp2151
I175
aI35
aI1
aa(lp2152
I177
aI36
aI1
aa(lp2153
I180
aI36
aI1
aa(lp2154
I184
aI37
aI1
aa(lp2155
I187
aI37
aI1
aa(lp2156
I189
aI38
aI1
aa(lp2157
I190
aI39
aI1
aa(lp2158
I191
aI39
aI4
aa(lp2159
I192
aI39
aI4
aa(lp2160
I197
aI43
aI1
aa(lp2161
I219
aI59
aI1
aa(lp2162
I238
aI66
aI1
aa(lp2163
I273
aI78
aI1
aa(lp2164
I298
aI98
aI1
aa(lp2165
I356
aI142
aI1
aa(lp2166
I398
aI171
aI1
aa(lp2167
I462
aI208
aI1
aa(lp2168
I499
aI251
aI1
aa(lp2169
I535
aI275
aI1
aa(lp2170
I589
aI307
aI1
aa(lp2171
I616
aI346
aI1
aa(lp2172
I646
aI366
aI1
aa(lp2173
I679
aI378
aI1
aa(lp2174
I700
aI388
aI1
aa(lp2175
I707
aI394
aI1
aa(lp2176
I711
aI396
aI1
aa(lp2177
I711
aI397
aI1
aa(lp2178
I710
aI397
aI3
aa(lp2179
I709
aI397
aI1
aa(lp2180
I707
aI397
aI1
aa(lp2181
I702
aI397
aI1
aa(lp2182
I693
aI395
aI1
aa(lp2183
I679
aI392
aI1
aa(lp2184
I645
aI384
aI1
aa(lp2185
I601
aI367
aI1
aa(lp2186
I547
aI353
aI1
aa(lp2187
I515
aI346
aI1
aa(lp2188
I474
aI340
aI1
aa(lp2189
I450
aI335
aI1
aa(lp2190
I422
aI330
aI1
aa(lp2191
I398
aI325
aI1
aa(lp2192
I387
aI323
aI1
aa(lp2193
I381
aI320
aI1
aa(lp2194
I376
aI318
aI1
aa(lp2195
I372
aI317
aI1
aa(lp2196
I370
aI317
aI1
aa(lp2197
I369
aI317
aI1
aa(lp2198
I347
aI285
aI1
aa(lp2199
I306
aI251
aI1
aa(lp2200
I214
aI154
aI1
aa(lp2201
I103
aI72
aI1
aa(lp2202
I8
aI0
aI1
aa.